
ws2812b.elf:     file format elf32-littlearm

Sections:
Idx Name          Size      VMA       LMA       File off  Algn
  0 .isr_vector   000000c0  08000000  08000000  00010000  2**0
                  CONTENTS, ALLOC, LOAD, READONLY, DATA
  1 .text         000019bc  080000c0  080000c0  000100c0  2**2
                  CONTENTS, ALLOC, LOAD, READONLY, CODE
  2 .rodata       000000c0  08001a7c  08001a7c  00011a7c  2**2
                  CONTENTS, ALLOC, LOAD, READONLY, DATA
  3 .ARM.extab    00000000  08001b3c  08001b3c  00020008  2**0
                  CONTENTS
  4 .ARM          00000000  08001b3c  08001b3c  00020008  2**0
                  CONTENTS
  5 .preinit_array 00000000  08001b3c  08001b3c  00020008  2**0
                  CONTENTS, ALLOC, LOAD, DATA
  6 .init_array   00000004  08001b3c  08001b3c  00011b3c  2**2
                  CONTENTS, ALLOC, LOAD, DATA
  7 .fini_array   00000004  08001b40  08001b40  00011b40  2**2
                  CONTENTS, ALLOC, LOAD, DATA
  8 .data         00000008  20000000  08001b44  00020000  2**2
                  CONTENTS, ALLOC, LOAD, DATA
  9 .bss          00000050  20000008  08001b4c  00020008  2**2
                  ALLOC
 10 ._user_heap_stack 00000400  20000058  08001b4c  00020058  2**0
                  ALLOC
 11 .ARM.attributes 00000028  00000000  00000000  00020008  2**0
                  CONTENTS, READONLY
 12 .debug_info   00000eab  00000000  00000000  00020030  2**0
                  CONTENTS, READONLY, DEBUGGING
 13 .debug_abbrev 0000026c  00000000  00000000  00020edb  2**0
                  CONTENTS, READONLY, DEBUGGING
 14 .debug_aranges 000000c8  00000000  00000000  00021148  2**3
                  CONTENTS, READONLY, DEBUGGING
 15 .debug_ranges 000000a0  00000000  00000000  00021210  2**3
                  CONTENTS, READONLY, DEBUGGING
 16 .debug_macro  000075d9  00000000  00000000  000212b0  2**0
                  CONTENTS, READONLY, DEBUGGING
 17 .debug_line   00000afd  00000000  00000000  00028889  2**0
                  CONTENTS, READONLY, DEBUGGING
 18 .debug_str    000273bc  00000000  00000000  00029386  2**0
                  CONTENTS, READONLY, DEBUGGING
 19 .comment      0000007b  00000000  00000000  00050742  2**0
                  CONTENTS, READONLY
 20 .debug_frame  00000398  00000000  00000000  000507c0  2**2
                  CONTENTS, READONLY, DEBUGGING

Disassembly of section .text:

080000c0 <__do_global_dtors_aux>:
 80000c0:	b510      	push	{r4, lr}
 80000c2:	4c06      	ldr	r4, [pc, #24]	; (80000dc <__do_global_dtors_aux+0x1c>)
 80000c4:	7823      	ldrb	r3, [r4, #0]
 80000c6:	2b00      	cmp	r3, #0
 80000c8:	d107      	bne.n	80000da <__do_global_dtors_aux+0x1a>
 80000ca:	4b05      	ldr	r3, [pc, #20]	; (80000e0 <__do_global_dtors_aux+0x20>)
 80000cc:	2b00      	cmp	r3, #0
 80000ce:	d002      	beq.n	80000d6 <__do_global_dtors_aux+0x16>
 80000d0:	4804      	ldr	r0, [pc, #16]	; (80000e4 <__do_global_dtors_aux+0x24>)
 80000d2:	e000      	b.n	80000d6 <__do_global_dtors_aux+0x16>
 80000d4:	bf00      	nop
 80000d6:	2301      	movs	r3, #1
 80000d8:	7023      	strb	r3, [r4, #0]
 80000da:	bd10      	pop	{r4, pc}
 80000dc:	20000008 	.word	0x20000008
 80000e0:	00000000 	.word	0x00000000
 80000e4:	08001a64 	.word	0x08001a64

080000e8 <frame_dummy>:
 80000e8:	4b04      	ldr	r3, [pc, #16]	; (80000fc <frame_dummy+0x14>)
 80000ea:	b510      	push	{r4, lr}
 80000ec:	2b00      	cmp	r3, #0
 80000ee:	d003      	beq.n	80000f8 <frame_dummy+0x10>
 80000f0:	4903      	ldr	r1, [pc, #12]	; (8000100 <frame_dummy+0x18>)
 80000f2:	4804      	ldr	r0, [pc, #16]	; (8000104 <frame_dummy+0x1c>)
 80000f4:	e000      	b.n	80000f8 <frame_dummy+0x10>
 80000f6:	bf00      	nop
 80000f8:	bd10      	pop	{r4, pc}
 80000fa:	46c0      	nop			; (mov r8, r8)
 80000fc:	00000000 	.word	0x00000000
 8000100:	2000000c 	.word	0x2000000c
 8000104:	08001a64 	.word	0x08001a64

08000108 <__aeabi_f2uiz>:
 8000108:	219e      	movs	r1, #158	; 0x9e
 800010a:	b510      	push	{r4, lr}
 800010c:	05c9      	lsls	r1, r1, #23
 800010e:	1c04      	adds	r4, r0, #0
 8000110:	f000 fcb4 	bl	8000a7c <__aeabi_fcmpge>
 8000114:	2800      	cmp	r0, #0
 8000116:	d103      	bne.n	8000120 <__aeabi_f2uiz+0x18>
 8000118:	1c20      	adds	r0, r4, #0
 800011a:	f000 fc15 	bl	8000948 <__aeabi_f2iz>
 800011e:	bd10      	pop	{r4, pc}
 8000120:	219e      	movs	r1, #158	; 0x9e
 8000122:	1c20      	adds	r0, r4, #0
 8000124:	05c9      	lsls	r1, r1, #23
 8000126:	f000 fa4b 	bl	80005c0 <__aeabi_fsub>
 800012a:	f000 fc0d 	bl	8000948 <__aeabi_f2iz>
 800012e:	2380      	movs	r3, #128	; 0x80
 8000130:	061b      	lsls	r3, r3, #24
 8000132:	469c      	mov	ip, r3
 8000134:	4460      	add	r0, ip
 8000136:	e7f2      	b.n	800011e <__aeabi_f2uiz+0x16>

08000138 <__aeabi_fdiv>:
 8000138:	b5f8      	push	{r3, r4, r5, r6, r7, lr}
 800013a:	4657      	mov	r7, sl
 800013c:	464e      	mov	r6, r9
 800013e:	4645      	mov	r5, r8
 8000140:	46de      	mov	lr, fp
 8000142:	0244      	lsls	r4, r0, #9
 8000144:	b5e0      	push	{r5, r6, r7, lr}
 8000146:	0046      	lsls	r6, r0, #1
 8000148:	4688      	mov	r8, r1
 800014a:	0a64      	lsrs	r4, r4, #9
 800014c:	0e36      	lsrs	r6, r6, #24
 800014e:	0fc7      	lsrs	r7, r0, #31
 8000150:	2e00      	cmp	r6, #0
 8000152:	d063      	beq.n	800021c <__aeabi_fdiv+0xe4>
 8000154:	2eff      	cmp	r6, #255	; 0xff
 8000156:	d024      	beq.n	80001a2 <__aeabi_fdiv+0x6a>
 8000158:	2380      	movs	r3, #128	; 0x80
 800015a:	00e4      	lsls	r4, r4, #3
 800015c:	04db      	lsls	r3, r3, #19
 800015e:	431c      	orrs	r4, r3
 8000160:	2300      	movs	r3, #0
 8000162:	4699      	mov	r9, r3
 8000164:	469b      	mov	fp, r3
 8000166:	3e7f      	subs	r6, #127	; 0x7f
 8000168:	4643      	mov	r3, r8
 800016a:	4642      	mov	r2, r8
 800016c:	025d      	lsls	r5, r3, #9
 800016e:	0fd2      	lsrs	r2, r2, #31
 8000170:	005b      	lsls	r3, r3, #1
 8000172:	0a6d      	lsrs	r5, r5, #9
 8000174:	0e1b      	lsrs	r3, r3, #24
 8000176:	4690      	mov	r8, r2
 8000178:	4692      	mov	sl, r2
 800017a:	d065      	beq.n	8000248 <__aeabi_fdiv+0x110>
 800017c:	2bff      	cmp	r3, #255	; 0xff
 800017e:	d055      	beq.n	800022c <__aeabi_fdiv+0xf4>
 8000180:	2280      	movs	r2, #128	; 0x80
 8000182:	2100      	movs	r1, #0
 8000184:	00ed      	lsls	r5, r5, #3
 8000186:	04d2      	lsls	r2, r2, #19
 8000188:	3b7f      	subs	r3, #127	; 0x7f
 800018a:	4315      	orrs	r5, r2
 800018c:	1af6      	subs	r6, r6, r3
 800018e:	4643      	mov	r3, r8
 8000190:	464a      	mov	r2, r9
 8000192:	407b      	eors	r3, r7
 8000194:	2a0f      	cmp	r2, #15
 8000196:	d900      	bls.n	800019a <__aeabi_fdiv+0x62>
 8000198:	e08d      	b.n	80002b6 <__aeabi_fdiv+0x17e>
 800019a:	486d      	ldr	r0, [pc, #436]	; (8000350 <__aeabi_fdiv+0x218>)
 800019c:	0092      	lsls	r2, r2, #2
 800019e:	5882      	ldr	r2, [r0, r2]
 80001a0:	4697      	mov	pc, r2
 80001a2:	2c00      	cmp	r4, #0
 80001a4:	d154      	bne.n	8000250 <__aeabi_fdiv+0x118>
 80001a6:	2308      	movs	r3, #8
 80001a8:	4699      	mov	r9, r3
 80001aa:	3b06      	subs	r3, #6
 80001ac:	26ff      	movs	r6, #255	; 0xff
 80001ae:	469b      	mov	fp, r3
 80001b0:	e7da      	b.n	8000168 <__aeabi_fdiv+0x30>
 80001b2:	2500      	movs	r5, #0
 80001b4:	4653      	mov	r3, sl
 80001b6:	2902      	cmp	r1, #2
 80001b8:	d01b      	beq.n	80001f2 <__aeabi_fdiv+0xba>
 80001ba:	2903      	cmp	r1, #3
 80001bc:	d100      	bne.n	80001c0 <__aeabi_fdiv+0x88>
 80001be:	e0bf      	b.n	8000340 <__aeabi_fdiv+0x208>
 80001c0:	2901      	cmp	r1, #1
 80001c2:	d028      	beq.n	8000216 <__aeabi_fdiv+0xde>
 80001c4:	0030      	movs	r0, r6
 80001c6:	307f      	adds	r0, #127	; 0x7f
 80001c8:	2800      	cmp	r0, #0
 80001ca:	dd20      	ble.n	800020e <__aeabi_fdiv+0xd6>
 80001cc:	076a      	lsls	r2, r5, #29
 80001ce:	d004      	beq.n	80001da <__aeabi_fdiv+0xa2>
 80001d0:	220f      	movs	r2, #15
 80001d2:	402a      	ands	r2, r5
 80001d4:	2a04      	cmp	r2, #4
 80001d6:	d000      	beq.n	80001da <__aeabi_fdiv+0xa2>
 80001d8:	3504      	adds	r5, #4
 80001da:	012a      	lsls	r2, r5, #4
 80001dc:	d503      	bpl.n	80001e6 <__aeabi_fdiv+0xae>
 80001de:	0030      	movs	r0, r6
 80001e0:	4a5c      	ldr	r2, [pc, #368]	; (8000354 <__aeabi_fdiv+0x21c>)
 80001e2:	3080      	adds	r0, #128	; 0x80
 80001e4:	4015      	ands	r5, r2
 80001e6:	28fe      	cmp	r0, #254	; 0xfe
 80001e8:	dc03      	bgt.n	80001f2 <__aeabi_fdiv+0xba>
 80001ea:	01ac      	lsls	r4, r5, #6
 80001ec:	0a64      	lsrs	r4, r4, #9
 80001ee:	b2c2      	uxtb	r2, r0
 80001f0:	e001      	b.n	80001f6 <__aeabi_fdiv+0xbe>
 80001f2:	22ff      	movs	r2, #255	; 0xff
 80001f4:	2400      	movs	r4, #0
 80001f6:	0264      	lsls	r4, r4, #9
 80001f8:	05d2      	lsls	r2, r2, #23
 80001fa:	0a60      	lsrs	r0, r4, #9
 80001fc:	07db      	lsls	r3, r3, #31
 80001fe:	4310      	orrs	r0, r2
 8000200:	4318      	orrs	r0, r3
 8000202:	bc3c      	pop	{r2, r3, r4, r5}
 8000204:	4690      	mov	r8, r2
 8000206:	4699      	mov	r9, r3
 8000208:	46a2      	mov	sl, r4
 800020a:	46ab      	mov	fp, r5
 800020c:	bdf8      	pop	{r3, r4, r5, r6, r7, pc}
 800020e:	2201      	movs	r2, #1
 8000210:	1a10      	subs	r0, r2, r0
 8000212:	281b      	cmp	r0, #27
 8000214:	dd7c      	ble.n	8000310 <__aeabi_fdiv+0x1d8>
 8000216:	2200      	movs	r2, #0
 8000218:	2400      	movs	r4, #0
 800021a:	e7ec      	b.n	80001f6 <__aeabi_fdiv+0xbe>
 800021c:	2c00      	cmp	r4, #0
 800021e:	d11d      	bne.n	800025c <__aeabi_fdiv+0x124>
 8000220:	2304      	movs	r3, #4
 8000222:	4699      	mov	r9, r3
 8000224:	3b03      	subs	r3, #3
 8000226:	2600      	movs	r6, #0
 8000228:	469b      	mov	fp, r3
 800022a:	e79d      	b.n	8000168 <__aeabi_fdiv+0x30>
 800022c:	3eff      	subs	r6, #255	; 0xff
 800022e:	2d00      	cmp	r5, #0
 8000230:	d120      	bne.n	8000274 <__aeabi_fdiv+0x13c>
 8000232:	2102      	movs	r1, #2
 8000234:	4643      	mov	r3, r8
 8000236:	464a      	mov	r2, r9
 8000238:	407b      	eors	r3, r7
 800023a:	430a      	orrs	r2, r1
 800023c:	2a0f      	cmp	r2, #15
 800023e:	d8d8      	bhi.n	80001f2 <__aeabi_fdiv+0xba>
 8000240:	4845      	ldr	r0, [pc, #276]	; (8000358 <__aeabi_fdiv+0x220>)
 8000242:	0092      	lsls	r2, r2, #2
 8000244:	5882      	ldr	r2, [r0, r2]
 8000246:	4697      	mov	pc, r2
 8000248:	2d00      	cmp	r5, #0
 800024a:	d119      	bne.n	8000280 <__aeabi_fdiv+0x148>
 800024c:	2101      	movs	r1, #1
 800024e:	e7f1      	b.n	8000234 <__aeabi_fdiv+0xfc>
 8000250:	230c      	movs	r3, #12
 8000252:	4699      	mov	r9, r3
 8000254:	3b09      	subs	r3, #9
 8000256:	26ff      	movs	r6, #255	; 0xff
 8000258:	469b      	mov	fp, r3
 800025a:	e785      	b.n	8000168 <__aeabi_fdiv+0x30>
 800025c:	0020      	movs	r0, r4
 800025e:	f000 fc17 	bl	8000a90 <__clzsi2>
 8000262:	2676      	movs	r6, #118	; 0x76
 8000264:	1f43      	subs	r3, r0, #5
 8000266:	409c      	lsls	r4, r3
 8000268:	2300      	movs	r3, #0
 800026a:	4276      	negs	r6, r6
 800026c:	1a36      	subs	r6, r6, r0
 800026e:	4699      	mov	r9, r3
 8000270:	469b      	mov	fp, r3
 8000272:	e779      	b.n	8000168 <__aeabi_fdiv+0x30>
 8000274:	464a      	mov	r2, r9
 8000276:	2303      	movs	r3, #3
 8000278:	431a      	orrs	r2, r3
 800027a:	4691      	mov	r9, r2
 800027c:	2103      	movs	r1, #3
 800027e:	e786      	b.n	800018e <__aeabi_fdiv+0x56>
 8000280:	0028      	movs	r0, r5
 8000282:	f000 fc05 	bl	8000a90 <__clzsi2>
 8000286:	1f43      	subs	r3, r0, #5
 8000288:	1836      	adds	r6, r6, r0
 800028a:	409d      	lsls	r5, r3
 800028c:	3676      	adds	r6, #118	; 0x76
 800028e:	2100      	movs	r1, #0
 8000290:	e77d      	b.n	800018e <__aeabi_fdiv+0x56>
 8000292:	2480      	movs	r4, #128	; 0x80
 8000294:	2300      	movs	r3, #0
 8000296:	03e4      	lsls	r4, r4, #15
 8000298:	22ff      	movs	r2, #255	; 0xff
 800029a:	e7ac      	b.n	80001f6 <__aeabi_fdiv+0xbe>
 800029c:	2500      	movs	r5, #0
 800029e:	2380      	movs	r3, #128	; 0x80
 80002a0:	03db      	lsls	r3, r3, #15
 80002a2:	421c      	tst	r4, r3
 80002a4:	d028      	beq.n	80002f8 <__aeabi_fdiv+0x1c0>
 80002a6:	421d      	tst	r5, r3
 80002a8:	d126      	bne.n	80002f8 <__aeabi_fdiv+0x1c0>
 80002aa:	432b      	orrs	r3, r5
 80002ac:	025c      	lsls	r4, r3, #9
 80002ae:	0a64      	lsrs	r4, r4, #9
 80002b0:	4643      	mov	r3, r8
 80002b2:	22ff      	movs	r2, #255	; 0xff
 80002b4:	e79f      	b.n	80001f6 <__aeabi_fdiv+0xbe>
 80002b6:	0162      	lsls	r2, r4, #5
 80002b8:	016c      	lsls	r4, r5, #5
 80002ba:	42a2      	cmp	r2, r4
 80002bc:	d224      	bcs.n	8000308 <__aeabi_fdiv+0x1d0>
 80002be:	211b      	movs	r1, #27
 80002c0:	2500      	movs	r5, #0
 80002c2:	3e01      	subs	r6, #1
 80002c4:	2701      	movs	r7, #1
 80002c6:	0010      	movs	r0, r2
 80002c8:	006d      	lsls	r5, r5, #1
 80002ca:	0052      	lsls	r2, r2, #1
 80002cc:	2800      	cmp	r0, #0
 80002ce:	db01      	blt.n	80002d4 <__aeabi_fdiv+0x19c>
 80002d0:	4294      	cmp	r4, r2
 80002d2:	d801      	bhi.n	80002d8 <__aeabi_fdiv+0x1a0>
 80002d4:	1b12      	subs	r2, r2, r4
 80002d6:	433d      	orrs	r5, r7
 80002d8:	3901      	subs	r1, #1
 80002da:	2900      	cmp	r1, #0
 80002dc:	d1f3      	bne.n	80002c6 <__aeabi_fdiv+0x18e>
 80002de:	0014      	movs	r4, r2
 80002e0:	1e62      	subs	r2, r4, #1
 80002e2:	4194      	sbcs	r4, r2
 80002e4:	4325      	orrs	r5, r4
 80002e6:	e76d      	b.n	80001c4 <__aeabi_fdiv+0x8c>
 80002e8:	46ba      	mov	sl, r7
 80002ea:	4659      	mov	r1, fp
 80002ec:	0025      	movs	r5, r4
 80002ee:	4653      	mov	r3, sl
 80002f0:	2902      	cmp	r1, #2
 80002f2:	d000      	beq.n	80002f6 <__aeabi_fdiv+0x1be>
 80002f4:	e761      	b.n	80001ba <__aeabi_fdiv+0x82>
 80002f6:	e77c      	b.n	80001f2 <__aeabi_fdiv+0xba>
 80002f8:	2380      	movs	r3, #128	; 0x80
 80002fa:	03db      	lsls	r3, r3, #15
 80002fc:	431c      	orrs	r4, r3
 80002fe:	0264      	lsls	r4, r4, #9
 8000300:	0a64      	lsrs	r4, r4, #9
 8000302:	003b      	movs	r3, r7
 8000304:	22ff      	movs	r2, #255	; 0xff
 8000306:	e776      	b.n	80001f6 <__aeabi_fdiv+0xbe>
 8000308:	1b12      	subs	r2, r2, r4
 800030a:	211a      	movs	r1, #26
 800030c:	2501      	movs	r5, #1
 800030e:	e7d9      	b.n	80002c4 <__aeabi_fdiv+0x18c>
 8000310:	369e      	adds	r6, #158	; 0x9e
 8000312:	002a      	movs	r2, r5
 8000314:	40b5      	lsls	r5, r6
 8000316:	002c      	movs	r4, r5
 8000318:	40c2      	lsrs	r2, r0
 800031a:	1e65      	subs	r5, r4, #1
 800031c:	41ac      	sbcs	r4, r5
 800031e:	4314      	orrs	r4, r2
 8000320:	0762      	lsls	r2, r4, #29
 8000322:	d004      	beq.n	800032e <__aeabi_fdiv+0x1f6>
 8000324:	220f      	movs	r2, #15
 8000326:	4022      	ands	r2, r4
 8000328:	2a04      	cmp	r2, #4
 800032a:	d000      	beq.n	800032e <__aeabi_fdiv+0x1f6>
 800032c:	3404      	adds	r4, #4
 800032e:	0162      	lsls	r2, r4, #5
 8000330:	d403      	bmi.n	800033a <__aeabi_fdiv+0x202>
 8000332:	01a4      	lsls	r4, r4, #6
 8000334:	0a64      	lsrs	r4, r4, #9
 8000336:	2200      	movs	r2, #0
 8000338:	e75d      	b.n	80001f6 <__aeabi_fdiv+0xbe>
 800033a:	2201      	movs	r2, #1
 800033c:	2400      	movs	r4, #0
 800033e:	e75a      	b.n	80001f6 <__aeabi_fdiv+0xbe>
 8000340:	2480      	movs	r4, #128	; 0x80
 8000342:	03e4      	lsls	r4, r4, #15
 8000344:	432c      	orrs	r4, r5
 8000346:	0264      	lsls	r4, r4, #9
 8000348:	0a64      	lsrs	r4, r4, #9
 800034a:	22ff      	movs	r2, #255	; 0xff
 800034c:	e753      	b.n	80001f6 <__aeabi_fdiv+0xbe>
 800034e:	46c0      	nop			; (mov r8, r8)
 8000350:	08001a7c 	.word	0x08001a7c
 8000354:	f7ffffff 	.word	0xf7ffffff
 8000358:	08001abc 	.word	0x08001abc

0800035c <__aeabi_fmul>:
 800035c:	b5f0      	push	{r4, r5, r6, r7, lr}
 800035e:	464e      	mov	r6, r9
 8000360:	4657      	mov	r7, sl
 8000362:	4645      	mov	r5, r8
 8000364:	46de      	mov	lr, fp
 8000366:	b5e0      	push	{r5, r6, r7, lr}
 8000368:	0243      	lsls	r3, r0, #9
 800036a:	0a5b      	lsrs	r3, r3, #9
 800036c:	0045      	lsls	r5, r0, #1
 800036e:	b083      	sub	sp, #12
 8000370:	1c0f      	adds	r7, r1, #0
 8000372:	4699      	mov	r9, r3
 8000374:	0e2d      	lsrs	r5, r5, #24
 8000376:	0fc6      	lsrs	r6, r0, #31
 8000378:	2d00      	cmp	r5, #0
 800037a:	d057      	beq.n	800042c <__aeabi_fmul+0xd0>
 800037c:	2dff      	cmp	r5, #255	; 0xff
 800037e:	d024      	beq.n	80003ca <__aeabi_fmul+0x6e>
 8000380:	2080      	movs	r0, #128	; 0x80
 8000382:	00db      	lsls	r3, r3, #3
 8000384:	04c0      	lsls	r0, r0, #19
 8000386:	4318      	orrs	r0, r3
 8000388:	2300      	movs	r3, #0
 800038a:	4681      	mov	r9, r0
 800038c:	469a      	mov	sl, r3
 800038e:	469b      	mov	fp, r3
 8000390:	3d7f      	subs	r5, #127	; 0x7f
 8000392:	027c      	lsls	r4, r7, #9
 8000394:	007a      	lsls	r2, r7, #1
 8000396:	0ffb      	lsrs	r3, r7, #31
 8000398:	0a64      	lsrs	r4, r4, #9
 800039a:	0e12      	lsrs	r2, r2, #24
 800039c:	4698      	mov	r8, r3
 800039e:	d023      	beq.n	80003e8 <__aeabi_fmul+0x8c>
 80003a0:	2aff      	cmp	r2, #255	; 0xff
 80003a2:	d04b      	beq.n	800043c <__aeabi_fmul+0xe0>
 80003a4:	00e3      	lsls	r3, r4, #3
 80003a6:	2480      	movs	r4, #128	; 0x80
 80003a8:	2000      	movs	r0, #0
 80003aa:	04e4      	lsls	r4, r4, #19
 80003ac:	3a7f      	subs	r2, #127	; 0x7f
 80003ae:	431c      	orrs	r4, r3
 80003b0:	18ad      	adds	r5, r5, r2
 80003b2:	1c6b      	adds	r3, r5, #1
 80003b4:	4647      	mov	r7, r8
 80003b6:	9301      	str	r3, [sp, #4]
 80003b8:	4653      	mov	r3, sl
 80003ba:	4077      	eors	r7, r6
 80003bc:	003a      	movs	r2, r7
 80003be:	2b0f      	cmp	r3, #15
 80003c0:	d848      	bhi.n	8000454 <__aeabi_fmul+0xf8>
 80003c2:	497d      	ldr	r1, [pc, #500]	; (80005b8 <__aeabi_fmul+0x25c>)
 80003c4:	009b      	lsls	r3, r3, #2
 80003c6:	58cb      	ldr	r3, [r1, r3]
 80003c8:	469f      	mov	pc, r3
 80003ca:	2b00      	cmp	r3, #0
 80003cc:	d000      	beq.n	80003d0 <__aeabi_fmul+0x74>
 80003ce:	e085      	b.n	80004dc <__aeabi_fmul+0x180>
 80003d0:	3308      	adds	r3, #8
 80003d2:	469a      	mov	sl, r3
 80003d4:	3b06      	subs	r3, #6
 80003d6:	469b      	mov	fp, r3
 80003d8:	027c      	lsls	r4, r7, #9
 80003da:	007a      	lsls	r2, r7, #1
 80003dc:	0ffb      	lsrs	r3, r7, #31
 80003de:	25ff      	movs	r5, #255	; 0xff
 80003e0:	0a64      	lsrs	r4, r4, #9
 80003e2:	0e12      	lsrs	r2, r2, #24
 80003e4:	4698      	mov	r8, r3
 80003e6:	d1db      	bne.n	80003a0 <__aeabi_fmul+0x44>
 80003e8:	2c00      	cmp	r4, #0
 80003ea:	d000      	beq.n	80003ee <__aeabi_fmul+0x92>
 80003ec:	e090      	b.n	8000510 <__aeabi_fmul+0x1b4>
 80003ee:	4652      	mov	r2, sl
 80003f0:	2301      	movs	r3, #1
 80003f2:	431a      	orrs	r2, r3
 80003f4:	4692      	mov	sl, r2
 80003f6:	2001      	movs	r0, #1
 80003f8:	e7db      	b.n	80003b2 <__aeabi_fmul+0x56>
 80003fa:	464c      	mov	r4, r9
 80003fc:	4658      	mov	r0, fp
 80003fe:	0017      	movs	r7, r2
 8000400:	2802      	cmp	r0, #2
 8000402:	d024      	beq.n	800044e <__aeabi_fmul+0xf2>
 8000404:	2803      	cmp	r0, #3
 8000406:	d100      	bne.n	800040a <__aeabi_fmul+0xae>
 8000408:	e0cf      	b.n	80005aa <__aeabi_fmul+0x24e>
 800040a:	2200      	movs	r2, #0
 800040c:	2300      	movs	r3, #0
 800040e:	2801      	cmp	r0, #1
 8000410:	d14d      	bne.n	80004ae <__aeabi_fmul+0x152>
 8000412:	0258      	lsls	r0, r3, #9
 8000414:	05d2      	lsls	r2, r2, #23
 8000416:	0a40      	lsrs	r0, r0, #9
 8000418:	07ff      	lsls	r7, r7, #31
 800041a:	4310      	orrs	r0, r2
 800041c:	4338      	orrs	r0, r7
 800041e:	b003      	add	sp, #12
 8000420:	bc3c      	pop	{r2, r3, r4, r5}
 8000422:	4690      	mov	r8, r2
 8000424:	4699      	mov	r9, r3
 8000426:	46a2      	mov	sl, r4
 8000428:	46ab      	mov	fp, r5
 800042a:	bdf0      	pop	{r4, r5, r6, r7, pc}
 800042c:	2b00      	cmp	r3, #0
 800042e:	d15b      	bne.n	80004e8 <__aeabi_fmul+0x18c>
 8000430:	2304      	movs	r3, #4
 8000432:	469a      	mov	sl, r3
 8000434:	3b03      	subs	r3, #3
 8000436:	2500      	movs	r5, #0
 8000438:	469b      	mov	fp, r3
 800043a:	e7aa      	b.n	8000392 <__aeabi_fmul+0x36>
 800043c:	35ff      	adds	r5, #255	; 0xff
 800043e:	2c00      	cmp	r4, #0
 8000440:	d160      	bne.n	8000504 <__aeabi_fmul+0x1a8>
 8000442:	4652      	mov	r2, sl
 8000444:	2302      	movs	r3, #2
 8000446:	431a      	orrs	r2, r3
 8000448:	4692      	mov	sl, r2
 800044a:	2002      	movs	r0, #2
 800044c:	e7b1      	b.n	80003b2 <__aeabi_fmul+0x56>
 800044e:	22ff      	movs	r2, #255	; 0xff
 8000450:	2300      	movs	r3, #0
 8000452:	e7de      	b.n	8000412 <__aeabi_fmul+0xb6>
 8000454:	464b      	mov	r3, r9
 8000456:	0c1b      	lsrs	r3, r3, #16
 8000458:	469c      	mov	ip, r3
 800045a:	464b      	mov	r3, r9
 800045c:	0426      	lsls	r6, r4, #16
 800045e:	0c36      	lsrs	r6, r6, #16
 8000460:	0418      	lsls	r0, r3, #16
 8000462:	4661      	mov	r1, ip
 8000464:	0033      	movs	r3, r6
 8000466:	0c22      	lsrs	r2, r4, #16
 8000468:	4664      	mov	r4, ip
 800046a:	0c00      	lsrs	r0, r0, #16
 800046c:	4343      	muls	r3, r0
 800046e:	434e      	muls	r6, r1
 8000470:	4350      	muls	r0, r2
 8000472:	4354      	muls	r4, r2
 8000474:	1980      	adds	r0, r0, r6
 8000476:	0c1a      	lsrs	r2, r3, #16
 8000478:	1812      	adds	r2, r2, r0
 800047a:	4296      	cmp	r6, r2
 800047c:	d903      	bls.n	8000486 <__aeabi_fmul+0x12a>
 800047e:	2180      	movs	r1, #128	; 0x80
 8000480:	0249      	lsls	r1, r1, #9
 8000482:	468c      	mov	ip, r1
 8000484:	4464      	add	r4, ip
 8000486:	041b      	lsls	r3, r3, #16
 8000488:	0c1b      	lsrs	r3, r3, #16
 800048a:	0410      	lsls	r0, r2, #16
 800048c:	18c0      	adds	r0, r0, r3
 800048e:	0183      	lsls	r3, r0, #6
 8000490:	1e5e      	subs	r6, r3, #1
 8000492:	41b3      	sbcs	r3, r6
 8000494:	0e80      	lsrs	r0, r0, #26
 8000496:	4318      	orrs	r0, r3
 8000498:	0c13      	lsrs	r3, r2, #16
 800049a:	191b      	adds	r3, r3, r4
 800049c:	019b      	lsls	r3, r3, #6
 800049e:	4303      	orrs	r3, r0
 80004a0:	001c      	movs	r4, r3
 80004a2:	0123      	lsls	r3, r4, #4
 80004a4:	d579      	bpl.n	800059a <__aeabi_fmul+0x23e>
 80004a6:	2301      	movs	r3, #1
 80004a8:	0862      	lsrs	r2, r4, #1
 80004aa:	401c      	ands	r4, r3
 80004ac:	4314      	orrs	r4, r2
 80004ae:	9a01      	ldr	r2, [sp, #4]
 80004b0:	327f      	adds	r2, #127	; 0x7f
 80004b2:	2a00      	cmp	r2, #0
 80004b4:	dd4d      	ble.n	8000552 <__aeabi_fmul+0x1f6>
 80004b6:	0763      	lsls	r3, r4, #29
 80004b8:	d004      	beq.n	80004c4 <__aeabi_fmul+0x168>
 80004ba:	230f      	movs	r3, #15
 80004bc:	4023      	ands	r3, r4
 80004be:	2b04      	cmp	r3, #4
 80004c0:	d000      	beq.n	80004c4 <__aeabi_fmul+0x168>
 80004c2:	3404      	adds	r4, #4
 80004c4:	0123      	lsls	r3, r4, #4
 80004c6:	d503      	bpl.n	80004d0 <__aeabi_fmul+0x174>
 80004c8:	4b3c      	ldr	r3, [pc, #240]	; (80005bc <__aeabi_fmul+0x260>)
 80004ca:	9a01      	ldr	r2, [sp, #4]
 80004cc:	401c      	ands	r4, r3
 80004ce:	3280      	adds	r2, #128	; 0x80
 80004d0:	2afe      	cmp	r2, #254	; 0xfe
 80004d2:	dcbc      	bgt.n	800044e <__aeabi_fmul+0xf2>
 80004d4:	01a3      	lsls	r3, r4, #6
 80004d6:	0a5b      	lsrs	r3, r3, #9
 80004d8:	b2d2      	uxtb	r2, r2
 80004da:	e79a      	b.n	8000412 <__aeabi_fmul+0xb6>
 80004dc:	230c      	movs	r3, #12
 80004de:	469a      	mov	sl, r3
 80004e0:	3b09      	subs	r3, #9
 80004e2:	25ff      	movs	r5, #255	; 0xff
 80004e4:	469b      	mov	fp, r3
 80004e6:	e754      	b.n	8000392 <__aeabi_fmul+0x36>
 80004e8:	0018      	movs	r0, r3
 80004ea:	f000 fad1 	bl	8000a90 <__clzsi2>
 80004ee:	464a      	mov	r2, r9
 80004f0:	1f43      	subs	r3, r0, #5
 80004f2:	2576      	movs	r5, #118	; 0x76
 80004f4:	409a      	lsls	r2, r3
 80004f6:	2300      	movs	r3, #0
 80004f8:	426d      	negs	r5, r5
 80004fa:	4691      	mov	r9, r2
 80004fc:	1a2d      	subs	r5, r5, r0
 80004fe:	469a      	mov	sl, r3
 8000500:	469b      	mov	fp, r3
 8000502:	e746      	b.n	8000392 <__aeabi_fmul+0x36>
 8000504:	4652      	mov	r2, sl
 8000506:	2303      	movs	r3, #3
 8000508:	431a      	orrs	r2, r3
 800050a:	4692      	mov	sl, r2
 800050c:	2003      	movs	r0, #3
 800050e:	e750      	b.n	80003b2 <__aeabi_fmul+0x56>
 8000510:	0020      	movs	r0, r4
 8000512:	f000 fabd 	bl	8000a90 <__clzsi2>
 8000516:	1f43      	subs	r3, r0, #5
 8000518:	1a2d      	subs	r5, r5, r0
 800051a:	409c      	lsls	r4, r3
 800051c:	3d76      	subs	r5, #118	; 0x76
 800051e:	2000      	movs	r0, #0
 8000520:	e747      	b.n	80003b2 <__aeabi_fmul+0x56>
 8000522:	2380      	movs	r3, #128	; 0x80
 8000524:	2700      	movs	r7, #0
 8000526:	03db      	lsls	r3, r3, #15
 8000528:	22ff      	movs	r2, #255	; 0xff
 800052a:	e772      	b.n	8000412 <__aeabi_fmul+0xb6>
 800052c:	4642      	mov	r2, r8
 800052e:	e766      	b.n	80003fe <__aeabi_fmul+0xa2>
 8000530:	464c      	mov	r4, r9
 8000532:	0032      	movs	r2, r6
 8000534:	4658      	mov	r0, fp
 8000536:	e762      	b.n	80003fe <__aeabi_fmul+0xa2>
 8000538:	2380      	movs	r3, #128	; 0x80
 800053a:	464a      	mov	r2, r9
 800053c:	03db      	lsls	r3, r3, #15
 800053e:	421a      	tst	r2, r3
 8000540:	d022      	beq.n	8000588 <__aeabi_fmul+0x22c>
 8000542:	421c      	tst	r4, r3
 8000544:	d120      	bne.n	8000588 <__aeabi_fmul+0x22c>
 8000546:	4323      	orrs	r3, r4
 8000548:	025b      	lsls	r3, r3, #9
 800054a:	0a5b      	lsrs	r3, r3, #9
 800054c:	4647      	mov	r7, r8
 800054e:	22ff      	movs	r2, #255	; 0xff
 8000550:	e75f      	b.n	8000412 <__aeabi_fmul+0xb6>
 8000552:	2301      	movs	r3, #1
 8000554:	1a9a      	subs	r2, r3, r2
 8000556:	2a1b      	cmp	r2, #27
 8000558:	dc21      	bgt.n	800059e <__aeabi_fmul+0x242>
 800055a:	0023      	movs	r3, r4
 800055c:	9901      	ldr	r1, [sp, #4]
 800055e:	40d3      	lsrs	r3, r2
 8000560:	319e      	adds	r1, #158	; 0x9e
 8000562:	408c      	lsls	r4, r1
 8000564:	001a      	movs	r2, r3
 8000566:	0023      	movs	r3, r4
 8000568:	1e5c      	subs	r4, r3, #1
 800056a:	41a3      	sbcs	r3, r4
 800056c:	4313      	orrs	r3, r2
 800056e:	075a      	lsls	r2, r3, #29
 8000570:	d004      	beq.n	800057c <__aeabi_fmul+0x220>
 8000572:	220f      	movs	r2, #15
 8000574:	401a      	ands	r2, r3
 8000576:	2a04      	cmp	r2, #4
 8000578:	d000      	beq.n	800057c <__aeabi_fmul+0x220>
 800057a:	3304      	adds	r3, #4
 800057c:	015a      	lsls	r2, r3, #5
 800057e:	d411      	bmi.n	80005a4 <__aeabi_fmul+0x248>
 8000580:	019b      	lsls	r3, r3, #6
 8000582:	0a5b      	lsrs	r3, r3, #9
 8000584:	2200      	movs	r2, #0
 8000586:	e744      	b.n	8000412 <__aeabi_fmul+0xb6>
 8000588:	2380      	movs	r3, #128	; 0x80
 800058a:	464a      	mov	r2, r9
 800058c:	03db      	lsls	r3, r3, #15
 800058e:	4313      	orrs	r3, r2
 8000590:	025b      	lsls	r3, r3, #9
 8000592:	0a5b      	lsrs	r3, r3, #9
 8000594:	0037      	movs	r7, r6
 8000596:	22ff      	movs	r2, #255	; 0xff
 8000598:	e73b      	b.n	8000412 <__aeabi_fmul+0xb6>
 800059a:	9501      	str	r5, [sp, #4]
 800059c:	e787      	b.n	80004ae <__aeabi_fmul+0x152>
 800059e:	2200      	movs	r2, #0
 80005a0:	2300      	movs	r3, #0
 80005a2:	e736      	b.n	8000412 <__aeabi_fmul+0xb6>
 80005a4:	2201      	movs	r2, #1
 80005a6:	2300      	movs	r3, #0
 80005a8:	e733      	b.n	8000412 <__aeabi_fmul+0xb6>
 80005aa:	2380      	movs	r3, #128	; 0x80
 80005ac:	03db      	lsls	r3, r3, #15
 80005ae:	4323      	orrs	r3, r4
 80005b0:	025b      	lsls	r3, r3, #9
 80005b2:	0a5b      	lsrs	r3, r3, #9
 80005b4:	22ff      	movs	r2, #255	; 0xff
 80005b6:	e72c      	b.n	8000412 <__aeabi_fmul+0xb6>
 80005b8:	08001afc 	.word	0x08001afc
 80005bc:	f7ffffff 	.word	0xf7ffffff

080005c0 <__aeabi_fsub>:
 80005c0:	b5f8      	push	{r3, r4, r5, r6, r7, lr}
 80005c2:	4647      	mov	r7, r8
 80005c4:	46ce      	mov	lr, r9
 80005c6:	0044      	lsls	r4, r0, #1
 80005c8:	0fc2      	lsrs	r2, r0, #31
 80005ca:	b580      	push	{r7, lr}
 80005cc:	0247      	lsls	r7, r0, #9
 80005ce:	0248      	lsls	r0, r1, #9
 80005d0:	0a40      	lsrs	r0, r0, #9
 80005d2:	4684      	mov	ip, r0
 80005d4:	4666      	mov	r6, ip
 80005d6:	0048      	lsls	r0, r1, #1
 80005d8:	0a7f      	lsrs	r7, r7, #9
 80005da:	0e24      	lsrs	r4, r4, #24
 80005dc:	00f6      	lsls	r6, r6, #3
 80005de:	0025      	movs	r5, r4
 80005e0:	4690      	mov	r8, r2
 80005e2:	00fb      	lsls	r3, r7, #3
 80005e4:	0e00      	lsrs	r0, r0, #24
 80005e6:	0fc9      	lsrs	r1, r1, #31
 80005e8:	46b1      	mov	r9, r6
 80005ea:	28ff      	cmp	r0, #255	; 0xff
 80005ec:	d100      	bne.n	80005f0 <__aeabi_fsub+0x30>
 80005ee:	e085      	b.n	80006fc <__aeabi_fsub+0x13c>
 80005f0:	2601      	movs	r6, #1
 80005f2:	4071      	eors	r1, r6
 80005f4:	1a26      	subs	r6, r4, r0
 80005f6:	4291      	cmp	r1, r2
 80005f8:	d057      	beq.n	80006aa <__aeabi_fsub+0xea>
 80005fa:	2e00      	cmp	r6, #0
 80005fc:	dd43      	ble.n	8000686 <__aeabi_fsub+0xc6>
 80005fe:	2800      	cmp	r0, #0
 8000600:	d000      	beq.n	8000604 <__aeabi_fsub+0x44>
 8000602:	e07f      	b.n	8000704 <__aeabi_fsub+0x144>
 8000604:	4649      	mov	r1, r9
 8000606:	2900      	cmp	r1, #0
 8000608:	d100      	bne.n	800060c <__aeabi_fsub+0x4c>
 800060a:	e0aa      	b.n	8000762 <__aeabi_fsub+0x1a2>
 800060c:	3e01      	subs	r6, #1
 800060e:	2e00      	cmp	r6, #0
 8000610:	d000      	beq.n	8000614 <__aeabi_fsub+0x54>
 8000612:	e0f7      	b.n	8000804 <__aeabi_fsub+0x244>
 8000614:	1a5b      	subs	r3, r3, r1
 8000616:	015a      	lsls	r2, r3, #5
 8000618:	d400      	bmi.n	800061c <__aeabi_fsub+0x5c>
 800061a:	e08b      	b.n	8000734 <__aeabi_fsub+0x174>
 800061c:	019b      	lsls	r3, r3, #6
 800061e:	099c      	lsrs	r4, r3, #6
 8000620:	0020      	movs	r0, r4
 8000622:	f000 fa35 	bl	8000a90 <__clzsi2>
 8000626:	3805      	subs	r0, #5
 8000628:	4084      	lsls	r4, r0
 800062a:	4285      	cmp	r5, r0
 800062c:	dd00      	ble.n	8000630 <__aeabi_fsub+0x70>
 800062e:	e0d3      	b.n	80007d8 <__aeabi_fsub+0x218>
 8000630:	1b45      	subs	r5, r0, r5
 8000632:	0023      	movs	r3, r4
 8000634:	2020      	movs	r0, #32
 8000636:	3501      	adds	r5, #1
 8000638:	40eb      	lsrs	r3, r5
 800063a:	1b45      	subs	r5, r0, r5
 800063c:	40ac      	lsls	r4, r5
 800063e:	1e62      	subs	r2, r4, #1
 8000640:	4194      	sbcs	r4, r2
 8000642:	4323      	orrs	r3, r4
 8000644:	2407      	movs	r4, #7
 8000646:	2500      	movs	r5, #0
 8000648:	401c      	ands	r4, r3
 800064a:	2201      	movs	r2, #1
 800064c:	4641      	mov	r1, r8
 800064e:	400a      	ands	r2, r1
 8000650:	2c00      	cmp	r4, #0
 8000652:	d004      	beq.n	800065e <__aeabi_fsub+0x9e>
 8000654:	210f      	movs	r1, #15
 8000656:	4019      	ands	r1, r3
 8000658:	2904      	cmp	r1, #4
 800065a:	d000      	beq.n	800065e <__aeabi_fsub+0x9e>
 800065c:	3304      	adds	r3, #4
 800065e:	0159      	lsls	r1, r3, #5
 8000660:	d400      	bmi.n	8000664 <__aeabi_fsub+0xa4>
 8000662:	e080      	b.n	8000766 <__aeabi_fsub+0x1a6>
 8000664:	3501      	adds	r5, #1
 8000666:	b2ec      	uxtb	r4, r5
 8000668:	2dff      	cmp	r5, #255	; 0xff
 800066a:	d000      	beq.n	800066e <__aeabi_fsub+0xae>
 800066c:	e0a3      	b.n	80007b6 <__aeabi_fsub+0x1f6>
 800066e:	24ff      	movs	r4, #255	; 0xff
 8000670:	2300      	movs	r3, #0
 8000672:	025b      	lsls	r3, r3, #9
 8000674:	05e4      	lsls	r4, r4, #23
 8000676:	0a58      	lsrs	r0, r3, #9
 8000678:	07d2      	lsls	r2, r2, #31
 800067a:	4320      	orrs	r0, r4
 800067c:	4310      	orrs	r0, r2
 800067e:	bc0c      	pop	{r2, r3}
 8000680:	4690      	mov	r8, r2
 8000682:	4699      	mov	r9, r3
 8000684:	bdf8      	pop	{r3, r4, r5, r6, r7, pc}
 8000686:	2e00      	cmp	r6, #0
 8000688:	d174      	bne.n	8000774 <__aeabi_fsub+0x1b4>
 800068a:	1c60      	adds	r0, r4, #1
 800068c:	b2c0      	uxtb	r0, r0
 800068e:	2801      	cmp	r0, #1
 8000690:	dc00      	bgt.n	8000694 <__aeabi_fsub+0xd4>
 8000692:	e0a7      	b.n	80007e4 <__aeabi_fsub+0x224>
 8000694:	464a      	mov	r2, r9
 8000696:	1a9c      	subs	r4, r3, r2
 8000698:	0162      	lsls	r2, r4, #5
 800069a:	d500      	bpl.n	800069e <__aeabi_fsub+0xde>
 800069c:	e0b6      	b.n	800080c <__aeabi_fsub+0x24c>
 800069e:	2c00      	cmp	r4, #0
 80006a0:	d1be      	bne.n	8000620 <__aeabi_fsub+0x60>
 80006a2:	2200      	movs	r2, #0
 80006a4:	2400      	movs	r4, #0
 80006a6:	2300      	movs	r3, #0
 80006a8:	e7e3      	b.n	8000672 <__aeabi_fsub+0xb2>
 80006aa:	2e00      	cmp	r6, #0
 80006ac:	dc00      	bgt.n	80006b0 <__aeabi_fsub+0xf0>
 80006ae:	e085      	b.n	80007bc <__aeabi_fsub+0x1fc>
 80006b0:	2800      	cmp	r0, #0
 80006b2:	d046      	beq.n	8000742 <__aeabi_fsub+0x182>
 80006b4:	2cff      	cmp	r4, #255	; 0xff
 80006b6:	d049      	beq.n	800074c <__aeabi_fsub+0x18c>
 80006b8:	2280      	movs	r2, #128	; 0x80
 80006ba:	4648      	mov	r0, r9
 80006bc:	04d2      	lsls	r2, r2, #19
 80006be:	4310      	orrs	r0, r2
 80006c0:	4681      	mov	r9, r0
 80006c2:	2201      	movs	r2, #1
 80006c4:	2e1b      	cmp	r6, #27
 80006c6:	dc09      	bgt.n	80006dc <__aeabi_fsub+0x11c>
 80006c8:	2020      	movs	r0, #32
 80006ca:	464c      	mov	r4, r9
 80006cc:	1b80      	subs	r0, r0, r6
 80006ce:	4084      	lsls	r4, r0
 80006d0:	464a      	mov	r2, r9
 80006d2:	0020      	movs	r0, r4
 80006d4:	40f2      	lsrs	r2, r6
 80006d6:	1e44      	subs	r4, r0, #1
 80006d8:	41a0      	sbcs	r0, r4
 80006da:	4302      	orrs	r2, r0
 80006dc:	189b      	adds	r3, r3, r2
 80006de:	015a      	lsls	r2, r3, #5
 80006e0:	d528      	bpl.n	8000734 <__aeabi_fsub+0x174>
 80006e2:	3501      	adds	r5, #1
 80006e4:	2dff      	cmp	r5, #255	; 0xff
 80006e6:	d100      	bne.n	80006ea <__aeabi_fsub+0x12a>
 80006e8:	e0a8      	b.n	800083c <__aeabi_fsub+0x27c>
 80006ea:	2201      	movs	r2, #1
 80006ec:	2407      	movs	r4, #7
 80006ee:	4994      	ldr	r1, [pc, #592]	; (8000940 <__aeabi_fsub+0x380>)
 80006f0:	401a      	ands	r2, r3
 80006f2:	085b      	lsrs	r3, r3, #1
 80006f4:	400b      	ands	r3, r1
 80006f6:	4313      	orrs	r3, r2
 80006f8:	401c      	ands	r4, r3
 80006fa:	e7a6      	b.n	800064a <__aeabi_fsub+0x8a>
 80006fc:	2e00      	cmp	r6, #0
 80006fe:	d000      	beq.n	8000702 <__aeabi_fsub+0x142>
 8000700:	e778      	b.n	80005f4 <__aeabi_fsub+0x34>
 8000702:	e775      	b.n	80005f0 <__aeabi_fsub+0x30>
 8000704:	2cff      	cmp	r4, #255	; 0xff
 8000706:	d054      	beq.n	80007b2 <__aeabi_fsub+0x1f2>
 8000708:	2280      	movs	r2, #128	; 0x80
 800070a:	4649      	mov	r1, r9
 800070c:	04d2      	lsls	r2, r2, #19
 800070e:	4311      	orrs	r1, r2
 8000710:	4689      	mov	r9, r1
 8000712:	2201      	movs	r2, #1
 8000714:	2e1b      	cmp	r6, #27
 8000716:	dc09      	bgt.n	800072c <__aeabi_fsub+0x16c>
 8000718:	2120      	movs	r1, #32
 800071a:	4648      	mov	r0, r9
 800071c:	1b89      	subs	r1, r1, r6
 800071e:	4088      	lsls	r0, r1
 8000720:	464a      	mov	r2, r9
 8000722:	0001      	movs	r1, r0
 8000724:	40f2      	lsrs	r2, r6
 8000726:	1e48      	subs	r0, r1, #1
 8000728:	4181      	sbcs	r1, r0
 800072a:	430a      	orrs	r2, r1
 800072c:	1a9b      	subs	r3, r3, r2
 800072e:	015a      	lsls	r2, r3, #5
 8000730:	d500      	bpl.n	8000734 <__aeabi_fsub+0x174>
 8000732:	e773      	b.n	800061c <__aeabi_fsub+0x5c>
 8000734:	2201      	movs	r2, #1
 8000736:	4641      	mov	r1, r8
 8000738:	400a      	ands	r2, r1
 800073a:	0759      	lsls	r1, r3, #29
 800073c:	d000      	beq.n	8000740 <__aeabi_fsub+0x180>
 800073e:	e789      	b.n	8000654 <__aeabi_fsub+0x94>
 8000740:	e011      	b.n	8000766 <__aeabi_fsub+0x1a6>
 8000742:	4648      	mov	r0, r9
 8000744:	2800      	cmp	r0, #0
 8000746:	d158      	bne.n	80007fa <__aeabi_fsub+0x23a>
 8000748:	2cff      	cmp	r4, #255	; 0xff
 800074a:	d10c      	bne.n	8000766 <__aeabi_fsub+0x1a6>
 800074c:	08db      	lsrs	r3, r3, #3
 800074e:	2b00      	cmp	r3, #0
 8000750:	d100      	bne.n	8000754 <__aeabi_fsub+0x194>
 8000752:	e78c      	b.n	800066e <__aeabi_fsub+0xae>
 8000754:	2080      	movs	r0, #128	; 0x80
 8000756:	03c0      	lsls	r0, r0, #15
 8000758:	4303      	orrs	r3, r0
 800075a:	025b      	lsls	r3, r3, #9
 800075c:	0a5b      	lsrs	r3, r3, #9
 800075e:	24ff      	movs	r4, #255	; 0xff
 8000760:	e787      	b.n	8000672 <__aeabi_fsub+0xb2>
 8000762:	2cff      	cmp	r4, #255	; 0xff
 8000764:	d025      	beq.n	80007b2 <__aeabi_fsub+0x1f2>
 8000766:	08db      	lsrs	r3, r3, #3
 8000768:	2dff      	cmp	r5, #255	; 0xff
 800076a:	d0f0      	beq.n	800074e <__aeabi_fsub+0x18e>
 800076c:	025b      	lsls	r3, r3, #9
 800076e:	0a5b      	lsrs	r3, r3, #9
 8000770:	b2ec      	uxtb	r4, r5
 8000772:	e77e      	b.n	8000672 <__aeabi_fsub+0xb2>
 8000774:	2c00      	cmp	r4, #0
 8000776:	d04d      	beq.n	8000814 <__aeabi_fsub+0x254>
 8000778:	28ff      	cmp	r0, #255	; 0xff
 800077a:	d018      	beq.n	80007ae <__aeabi_fsub+0x1ee>
 800077c:	2480      	movs	r4, #128	; 0x80
 800077e:	04e4      	lsls	r4, r4, #19
 8000780:	4272      	negs	r2, r6
 8000782:	4323      	orrs	r3, r4
 8000784:	2a1b      	cmp	r2, #27
 8000786:	dd00      	ble.n	800078a <__aeabi_fsub+0x1ca>
 8000788:	e0c4      	b.n	8000914 <__aeabi_fsub+0x354>
 800078a:	001c      	movs	r4, r3
 800078c:	2520      	movs	r5, #32
 800078e:	40d4      	lsrs	r4, r2
 8000790:	1aaa      	subs	r2, r5, r2
 8000792:	4093      	lsls	r3, r2
 8000794:	1e5a      	subs	r2, r3, #1
 8000796:	4193      	sbcs	r3, r2
 8000798:	4323      	orrs	r3, r4
 800079a:	464a      	mov	r2, r9
 800079c:	0005      	movs	r5, r0
 800079e:	1ad3      	subs	r3, r2, r3
 80007a0:	4688      	mov	r8, r1
 80007a2:	e738      	b.n	8000616 <__aeabi_fsub+0x56>
 80007a4:	1c72      	adds	r2, r6, #1
 80007a6:	d0f8      	beq.n	800079a <__aeabi_fsub+0x1da>
 80007a8:	43f2      	mvns	r2, r6
 80007aa:	28ff      	cmp	r0, #255	; 0xff
 80007ac:	d1ea      	bne.n	8000784 <__aeabi_fsub+0x1c4>
 80007ae:	000a      	movs	r2, r1
 80007b0:	464b      	mov	r3, r9
 80007b2:	25ff      	movs	r5, #255	; 0xff
 80007b4:	e7d7      	b.n	8000766 <__aeabi_fsub+0x1a6>
 80007b6:	019b      	lsls	r3, r3, #6
 80007b8:	0a5b      	lsrs	r3, r3, #9
 80007ba:	e75a      	b.n	8000672 <__aeabi_fsub+0xb2>
 80007bc:	2e00      	cmp	r6, #0
 80007be:	d141      	bne.n	8000844 <__aeabi_fsub+0x284>
 80007c0:	1c65      	adds	r5, r4, #1
 80007c2:	b2e9      	uxtb	r1, r5
 80007c4:	2901      	cmp	r1, #1
 80007c6:	dd45      	ble.n	8000854 <__aeabi_fsub+0x294>
 80007c8:	2dff      	cmp	r5, #255	; 0xff
 80007ca:	d100      	bne.n	80007ce <__aeabi_fsub+0x20e>
 80007cc:	e74f      	b.n	800066e <__aeabi_fsub+0xae>
 80007ce:	2407      	movs	r4, #7
 80007d0:	444b      	add	r3, r9
 80007d2:	085b      	lsrs	r3, r3, #1
 80007d4:	401c      	ands	r4, r3
 80007d6:	e738      	b.n	800064a <__aeabi_fsub+0x8a>
 80007d8:	2207      	movs	r2, #7
 80007da:	4b5a      	ldr	r3, [pc, #360]	; (8000944 <__aeabi_fsub+0x384>)
 80007dc:	1a2d      	subs	r5, r5, r0
 80007de:	4023      	ands	r3, r4
 80007e0:	4014      	ands	r4, r2
 80007e2:	e732      	b.n	800064a <__aeabi_fsub+0x8a>
 80007e4:	2c00      	cmp	r4, #0
 80007e6:	d11d      	bne.n	8000824 <__aeabi_fsub+0x264>
 80007e8:	2b00      	cmp	r3, #0
 80007ea:	d17a      	bne.n	80008e2 <__aeabi_fsub+0x322>
 80007ec:	464b      	mov	r3, r9
 80007ee:	2b00      	cmp	r3, #0
 80007f0:	d100      	bne.n	80007f4 <__aeabi_fsub+0x234>
 80007f2:	e091      	b.n	8000918 <__aeabi_fsub+0x358>
 80007f4:	000a      	movs	r2, r1
 80007f6:	2500      	movs	r5, #0
 80007f8:	e7b5      	b.n	8000766 <__aeabi_fsub+0x1a6>
 80007fa:	3e01      	subs	r6, #1
 80007fc:	2e00      	cmp	r6, #0
 80007fe:	d119      	bne.n	8000834 <__aeabi_fsub+0x274>
 8000800:	444b      	add	r3, r9
 8000802:	e76c      	b.n	80006de <__aeabi_fsub+0x11e>
 8000804:	2cff      	cmp	r4, #255	; 0xff
 8000806:	d184      	bne.n	8000712 <__aeabi_fsub+0x152>
 8000808:	25ff      	movs	r5, #255	; 0xff
 800080a:	e7ac      	b.n	8000766 <__aeabi_fsub+0x1a6>
 800080c:	464a      	mov	r2, r9
 800080e:	4688      	mov	r8, r1
 8000810:	1ad4      	subs	r4, r2, r3
 8000812:	e705      	b.n	8000620 <__aeabi_fsub+0x60>
 8000814:	2b00      	cmp	r3, #0
 8000816:	d1c5      	bne.n	80007a4 <__aeabi_fsub+0x1e4>
 8000818:	000a      	movs	r2, r1
 800081a:	28ff      	cmp	r0, #255	; 0xff
 800081c:	d0c8      	beq.n	80007b0 <__aeabi_fsub+0x1f0>
 800081e:	0005      	movs	r5, r0
 8000820:	464b      	mov	r3, r9
 8000822:	e7a0      	b.n	8000766 <__aeabi_fsub+0x1a6>
 8000824:	2b00      	cmp	r3, #0
 8000826:	d149      	bne.n	80008bc <__aeabi_fsub+0x2fc>
 8000828:	464b      	mov	r3, r9
 800082a:	2b00      	cmp	r3, #0
 800082c:	d077      	beq.n	800091e <__aeabi_fsub+0x35e>
 800082e:	000a      	movs	r2, r1
 8000830:	25ff      	movs	r5, #255	; 0xff
 8000832:	e798      	b.n	8000766 <__aeabi_fsub+0x1a6>
 8000834:	2cff      	cmp	r4, #255	; 0xff
 8000836:	d000      	beq.n	800083a <__aeabi_fsub+0x27a>
 8000838:	e743      	b.n	80006c2 <__aeabi_fsub+0x102>
 800083a:	e787      	b.n	800074c <__aeabi_fsub+0x18c>
 800083c:	000a      	movs	r2, r1
 800083e:	24ff      	movs	r4, #255	; 0xff
 8000840:	2300      	movs	r3, #0
 8000842:	e716      	b.n	8000672 <__aeabi_fsub+0xb2>
 8000844:	2c00      	cmp	r4, #0
 8000846:	d115      	bne.n	8000874 <__aeabi_fsub+0x2b4>
 8000848:	2b00      	cmp	r3, #0
 800084a:	d157      	bne.n	80008fc <__aeabi_fsub+0x33c>
 800084c:	28ff      	cmp	r0, #255	; 0xff
 800084e:	d1e6      	bne.n	800081e <__aeabi_fsub+0x25e>
 8000850:	464b      	mov	r3, r9
 8000852:	e77b      	b.n	800074c <__aeabi_fsub+0x18c>
 8000854:	2c00      	cmp	r4, #0
 8000856:	d120      	bne.n	800089a <__aeabi_fsub+0x2da>
 8000858:	2b00      	cmp	r3, #0
 800085a:	d057      	beq.n	800090c <__aeabi_fsub+0x34c>
 800085c:	4649      	mov	r1, r9
 800085e:	2900      	cmp	r1, #0
 8000860:	d053      	beq.n	800090a <__aeabi_fsub+0x34a>
 8000862:	444b      	add	r3, r9
 8000864:	015a      	lsls	r2, r3, #5
 8000866:	d568      	bpl.n	800093a <__aeabi_fsub+0x37a>
 8000868:	2407      	movs	r4, #7
 800086a:	4a36      	ldr	r2, [pc, #216]	; (8000944 <__aeabi_fsub+0x384>)
 800086c:	401c      	ands	r4, r3
 800086e:	2501      	movs	r5, #1
 8000870:	4013      	ands	r3, r2
 8000872:	e6ea      	b.n	800064a <__aeabi_fsub+0x8a>
 8000874:	28ff      	cmp	r0, #255	; 0xff
 8000876:	d0eb      	beq.n	8000850 <__aeabi_fsub+0x290>
 8000878:	2280      	movs	r2, #128	; 0x80
 800087a:	04d2      	lsls	r2, r2, #19
 800087c:	4276      	negs	r6, r6
 800087e:	4313      	orrs	r3, r2
 8000880:	2e1b      	cmp	r6, #27
 8000882:	dc53      	bgt.n	800092c <__aeabi_fsub+0x36c>
 8000884:	2520      	movs	r5, #32
 8000886:	1bad      	subs	r5, r5, r6
 8000888:	001a      	movs	r2, r3
 800088a:	40ab      	lsls	r3, r5
 800088c:	40f2      	lsrs	r2, r6
 800088e:	1e5c      	subs	r4, r3, #1
 8000890:	41a3      	sbcs	r3, r4
 8000892:	4313      	orrs	r3, r2
 8000894:	444b      	add	r3, r9
 8000896:	0005      	movs	r5, r0
 8000898:	e721      	b.n	80006de <__aeabi_fsub+0x11e>
 800089a:	2b00      	cmp	r3, #0
 800089c:	d0d8      	beq.n	8000850 <__aeabi_fsub+0x290>
 800089e:	4649      	mov	r1, r9
 80008a0:	2900      	cmp	r1, #0
 80008a2:	d100      	bne.n	80008a6 <__aeabi_fsub+0x2e6>
 80008a4:	e752      	b.n	800074c <__aeabi_fsub+0x18c>
 80008a6:	2180      	movs	r1, #128	; 0x80
 80008a8:	03c9      	lsls	r1, r1, #15
 80008aa:	420f      	tst	r7, r1
 80008ac:	d100      	bne.n	80008b0 <__aeabi_fsub+0x2f0>
 80008ae:	e74d      	b.n	800074c <__aeabi_fsub+0x18c>
 80008b0:	4660      	mov	r0, ip
 80008b2:	4208      	tst	r0, r1
 80008b4:	d000      	beq.n	80008b8 <__aeabi_fsub+0x2f8>
 80008b6:	e749      	b.n	800074c <__aeabi_fsub+0x18c>
 80008b8:	464b      	mov	r3, r9
 80008ba:	e747      	b.n	800074c <__aeabi_fsub+0x18c>
 80008bc:	4648      	mov	r0, r9
 80008be:	25ff      	movs	r5, #255	; 0xff
 80008c0:	2800      	cmp	r0, #0
 80008c2:	d100      	bne.n	80008c6 <__aeabi_fsub+0x306>
 80008c4:	e74f      	b.n	8000766 <__aeabi_fsub+0x1a6>
 80008c6:	2280      	movs	r2, #128	; 0x80
 80008c8:	03d2      	lsls	r2, r2, #15
 80008ca:	4217      	tst	r7, r2
 80008cc:	d004      	beq.n	80008d8 <__aeabi_fsub+0x318>
 80008ce:	4660      	mov	r0, ip
 80008d0:	4210      	tst	r0, r2
 80008d2:	d101      	bne.n	80008d8 <__aeabi_fsub+0x318>
 80008d4:	464b      	mov	r3, r9
 80008d6:	4688      	mov	r8, r1
 80008d8:	2201      	movs	r2, #1
 80008da:	4641      	mov	r1, r8
 80008dc:	25ff      	movs	r5, #255	; 0xff
 80008de:	400a      	ands	r2, r1
 80008e0:	e741      	b.n	8000766 <__aeabi_fsub+0x1a6>
 80008e2:	4648      	mov	r0, r9
 80008e4:	2800      	cmp	r0, #0
 80008e6:	d01f      	beq.n	8000928 <__aeabi_fsub+0x368>
 80008e8:	1a1a      	subs	r2, r3, r0
 80008ea:	0150      	lsls	r0, r2, #5
 80008ec:	d520      	bpl.n	8000930 <__aeabi_fsub+0x370>
 80008ee:	464a      	mov	r2, r9
 80008f0:	2407      	movs	r4, #7
 80008f2:	1ad3      	subs	r3, r2, r3
 80008f4:	401c      	ands	r4, r3
 80008f6:	4688      	mov	r8, r1
 80008f8:	2500      	movs	r5, #0
 80008fa:	e6a6      	b.n	800064a <__aeabi_fsub+0x8a>
 80008fc:	1c74      	adds	r4, r6, #1
 80008fe:	d0c9      	beq.n	8000894 <__aeabi_fsub+0x2d4>
 8000900:	43f6      	mvns	r6, r6
 8000902:	28ff      	cmp	r0, #255	; 0xff
 8000904:	d1bc      	bne.n	8000880 <__aeabi_fsub+0x2c0>
 8000906:	464b      	mov	r3, r9
 8000908:	e720      	b.n	800074c <__aeabi_fsub+0x18c>
 800090a:	4699      	mov	r9, r3
 800090c:	464b      	mov	r3, r9
 800090e:	2500      	movs	r5, #0
 8000910:	08db      	lsrs	r3, r3, #3
 8000912:	e72b      	b.n	800076c <__aeabi_fsub+0x1ac>
 8000914:	2301      	movs	r3, #1
 8000916:	e740      	b.n	800079a <__aeabi_fsub+0x1da>
 8000918:	2200      	movs	r2, #0
 800091a:	2300      	movs	r3, #0
 800091c:	e6a9      	b.n	8000672 <__aeabi_fsub+0xb2>
 800091e:	2380      	movs	r3, #128	; 0x80
 8000920:	2200      	movs	r2, #0
 8000922:	03db      	lsls	r3, r3, #15
 8000924:	24ff      	movs	r4, #255	; 0xff
 8000926:	e6a4      	b.n	8000672 <__aeabi_fsub+0xb2>
 8000928:	2500      	movs	r5, #0
 800092a:	e71c      	b.n	8000766 <__aeabi_fsub+0x1a6>
 800092c:	2301      	movs	r3, #1
 800092e:	e7b1      	b.n	8000894 <__aeabi_fsub+0x2d4>
 8000930:	2a00      	cmp	r2, #0
 8000932:	d0f1      	beq.n	8000918 <__aeabi_fsub+0x358>
 8000934:	0013      	movs	r3, r2
 8000936:	2500      	movs	r5, #0
 8000938:	e6fc      	b.n	8000734 <__aeabi_fsub+0x174>
 800093a:	2500      	movs	r5, #0
 800093c:	e6fa      	b.n	8000734 <__aeabi_fsub+0x174>
 800093e:	46c0      	nop			; (mov r8, r8)
 8000940:	7dffffff 	.word	0x7dffffff
 8000944:	fbffffff 	.word	0xfbffffff

08000948 <__aeabi_f2iz>:
 8000948:	0241      	lsls	r1, r0, #9
 800094a:	0042      	lsls	r2, r0, #1
 800094c:	0fc3      	lsrs	r3, r0, #31
 800094e:	0a49      	lsrs	r1, r1, #9
 8000950:	0e12      	lsrs	r2, r2, #24
 8000952:	2000      	movs	r0, #0
 8000954:	2a7e      	cmp	r2, #126	; 0x7e
 8000956:	d90d      	bls.n	8000974 <__aeabi_f2iz+0x2c>
 8000958:	2a9d      	cmp	r2, #157	; 0x9d
 800095a:	d80c      	bhi.n	8000976 <__aeabi_f2iz+0x2e>
 800095c:	2080      	movs	r0, #128	; 0x80
 800095e:	0400      	lsls	r0, r0, #16
 8000960:	4301      	orrs	r1, r0
 8000962:	2a95      	cmp	r2, #149	; 0x95
 8000964:	dc0a      	bgt.n	800097c <__aeabi_f2iz+0x34>
 8000966:	2096      	movs	r0, #150	; 0x96
 8000968:	1a82      	subs	r2, r0, r2
 800096a:	40d1      	lsrs	r1, r2
 800096c:	4248      	negs	r0, r1
 800096e:	2b00      	cmp	r3, #0
 8000970:	d100      	bne.n	8000974 <__aeabi_f2iz+0x2c>
 8000972:	0008      	movs	r0, r1
 8000974:	4770      	bx	lr
 8000976:	4a03      	ldr	r2, [pc, #12]	; (8000984 <__aeabi_f2iz+0x3c>)
 8000978:	1898      	adds	r0, r3, r2
 800097a:	e7fb      	b.n	8000974 <__aeabi_f2iz+0x2c>
 800097c:	3a96      	subs	r2, #150	; 0x96
 800097e:	4091      	lsls	r1, r2
 8000980:	e7f4      	b.n	800096c <__aeabi_f2iz+0x24>
 8000982:	46c0      	nop			; (mov r8, r8)
 8000984:	7fffffff 	.word	0x7fffffff

08000988 <__aeabi_i2f>:
 8000988:	b570      	push	{r4, r5, r6, lr}
 800098a:	2800      	cmp	r0, #0
 800098c:	d03d      	beq.n	8000a0a <__aeabi_i2f+0x82>
 800098e:	17c3      	asrs	r3, r0, #31
 8000990:	18c5      	adds	r5, r0, r3
 8000992:	405d      	eors	r5, r3
 8000994:	0fc4      	lsrs	r4, r0, #31
 8000996:	0028      	movs	r0, r5
 8000998:	f000 f87a 	bl	8000a90 <__clzsi2>
 800099c:	229e      	movs	r2, #158	; 0x9e
 800099e:	1a12      	subs	r2, r2, r0
 80009a0:	2a96      	cmp	r2, #150	; 0x96
 80009a2:	dc07      	bgt.n	80009b4 <__aeabi_i2f+0x2c>
 80009a4:	b2d2      	uxtb	r2, r2
 80009a6:	2808      	cmp	r0, #8
 80009a8:	dd33      	ble.n	8000a12 <__aeabi_i2f+0x8a>
 80009aa:	3808      	subs	r0, #8
 80009ac:	4085      	lsls	r5, r0
 80009ae:	0268      	lsls	r0, r5, #9
 80009b0:	0a40      	lsrs	r0, r0, #9
 80009b2:	e023      	b.n	80009fc <__aeabi_i2f+0x74>
 80009b4:	2a99      	cmp	r2, #153	; 0x99
 80009b6:	dd0b      	ble.n	80009d0 <__aeabi_i2f+0x48>
 80009b8:	2305      	movs	r3, #5
 80009ba:	0029      	movs	r1, r5
 80009bc:	1a1b      	subs	r3, r3, r0
 80009be:	40d9      	lsrs	r1, r3
 80009c0:	0003      	movs	r3, r0
 80009c2:	331b      	adds	r3, #27
 80009c4:	409d      	lsls	r5, r3
 80009c6:	002b      	movs	r3, r5
 80009c8:	1e5d      	subs	r5, r3, #1
 80009ca:	41ab      	sbcs	r3, r5
 80009cc:	4319      	orrs	r1, r3
 80009ce:	000d      	movs	r5, r1
 80009d0:	2805      	cmp	r0, #5
 80009d2:	dd01      	ble.n	80009d8 <__aeabi_i2f+0x50>
 80009d4:	1f43      	subs	r3, r0, #5
 80009d6:	409d      	lsls	r5, r3
 80009d8:	002b      	movs	r3, r5
 80009da:	490f      	ldr	r1, [pc, #60]	; (8000a18 <__aeabi_i2f+0x90>)
 80009dc:	400b      	ands	r3, r1
 80009de:	076e      	lsls	r6, r5, #29
 80009e0:	d009      	beq.n	80009f6 <__aeabi_i2f+0x6e>
 80009e2:	260f      	movs	r6, #15
 80009e4:	4035      	ands	r5, r6
 80009e6:	2d04      	cmp	r5, #4
 80009e8:	d005      	beq.n	80009f6 <__aeabi_i2f+0x6e>
 80009ea:	3304      	adds	r3, #4
 80009ec:	015d      	lsls	r5, r3, #5
 80009ee:	d502      	bpl.n	80009f6 <__aeabi_i2f+0x6e>
 80009f0:	229f      	movs	r2, #159	; 0x9f
 80009f2:	400b      	ands	r3, r1
 80009f4:	1a12      	subs	r2, r2, r0
 80009f6:	019b      	lsls	r3, r3, #6
 80009f8:	0a58      	lsrs	r0, r3, #9
 80009fa:	b2d2      	uxtb	r2, r2
 80009fc:	0240      	lsls	r0, r0, #9
 80009fe:	05d2      	lsls	r2, r2, #23
 8000a00:	0a40      	lsrs	r0, r0, #9
 8000a02:	07e4      	lsls	r4, r4, #31
 8000a04:	4310      	orrs	r0, r2
 8000a06:	4320      	orrs	r0, r4
 8000a08:	bd70      	pop	{r4, r5, r6, pc}
 8000a0a:	2400      	movs	r4, #0
 8000a0c:	2200      	movs	r2, #0
 8000a0e:	2000      	movs	r0, #0
 8000a10:	e7f4      	b.n	80009fc <__aeabi_i2f+0x74>
 8000a12:	0268      	lsls	r0, r5, #9
 8000a14:	0a40      	lsrs	r0, r0, #9
 8000a16:	e7f1      	b.n	80009fc <__aeabi_i2f+0x74>
 8000a18:	fbffffff 	.word	0xfbffffff

08000a1c <__aeabi_cfrcmple>:
 8000a1c:	4684      	mov	ip, r0
 8000a1e:	1c08      	adds	r0, r1, #0
 8000a20:	4661      	mov	r1, ip
 8000a22:	e7ff      	b.n	8000a24 <__aeabi_cfcmpeq>

08000a24 <__aeabi_cfcmpeq>:
 8000a24:	b51f      	push	{r0, r1, r2, r3, r4, lr}
 8000a26:	f000 f8c7 	bl	8000bb8 <__lesf2>
 8000a2a:	2800      	cmp	r0, #0
 8000a2c:	d401      	bmi.n	8000a32 <__aeabi_cfcmpeq+0xe>
 8000a2e:	2100      	movs	r1, #0
 8000a30:	42c8      	cmn	r0, r1
 8000a32:	bd1f      	pop	{r0, r1, r2, r3, r4, pc}

08000a34 <__aeabi_fcmpeq>:
 8000a34:	b510      	push	{r4, lr}
 8000a36:	f000 f849 	bl	8000acc <__eqsf2>
 8000a3a:	4240      	negs	r0, r0
 8000a3c:	3001      	adds	r0, #1
 8000a3e:	bd10      	pop	{r4, pc}

08000a40 <__aeabi_fcmplt>:
 8000a40:	b510      	push	{r4, lr}
 8000a42:	f000 f8b9 	bl	8000bb8 <__lesf2>
 8000a46:	2800      	cmp	r0, #0
 8000a48:	db01      	blt.n	8000a4e <__aeabi_fcmplt+0xe>
 8000a4a:	2000      	movs	r0, #0
 8000a4c:	bd10      	pop	{r4, pc}
 8000a4e:	2001      	movs	r0, #1
 8000a50:	bd10      	pop	{r4, pc}
 8000a52:	46c0      	nop			; (mov r8, r8)

08000a54 <__aeabi_fcmple>:
 8000a54:	b510      	push	{r4, lr}
 8000a56:	f000 f8af 	bl	8000bb8 <__lesf2>
 8000a5a:	2800      	cmp	r0, #0
 8000a5c:	dd01      	ble.n	8000a62 <__aeabi_fcmple+0xe>
 8000a5e:	2000      	movs	r0, #0
 8000a60:	bd10      	pop	{r4, pc}
 8000a62:	2001      	movs	r0, #1
 8000a64:	bd10      	pop	{r4, pc}
 8000a66:	46c0      	nop			; (mov r8, r8)

08000a68 <__aeabi_fcmpgt>:
 8000a68:	b510      	push	{r4, lr}
 8000a6a:	f000 f857 	bl	8000b1c <__gesf2>
 8000a6e:	2800      	cmp	r0, #0
 8000a70:	dc01      	bgt.n	8000a76 <__aeabi_fcmpgt+0xe>
 8000a72:	2000      	movs	r0, #0
 8000a74:	bd10      	pop	{r4, pc}
 8000a76:	2001      	movs	r0, #1
 8000a78:	bd10      	pop	{r4, pc}
 8000a7a:	46c0      	nop			; (mov r8, r8)

08000a7c <__aeabi_fcmpge>:
 8000a7c:	b510      	push	{r4, lr}
 8000a7e:	f000 f84d 	bl	8000b1c <__gesf2>
 8000a82:	2800      	cmp	r0, #0
 8000a84:	da01      	bge.n	8000a8a <__aeabi_fcmpge+0xe>
 8000a86:	2000      	movs	r0, #0
 8000a88:	bd10      	pop	{r4, pc}
 8000a8a:	2001      	movs	r0, #1
 8000a8c:	bd10      	pop	{r4, pc}
 8000a8e:	46c0      	nop			; (mov r8, r8)

08000a90 <__clzsi2>:
 8000a90:	211c      	movs	r1, #28
 8000a92:	2301      	movs	r3, #1
 8000a94:	041b      	lsls	r3, r3, #16
 8000a96:	4298      	cmp	r0, r3
 8000a98:	d301      	bcc.n	8000a9e <__clzsi2+0xe>
 8000a9a:	0c00      	lsrs	r0, r0, #16
 8000a9c:	3910      	subs	r1, #16
 8000a9e:	0a1b      	lsrs	r3, r3, #8
 8000aa0:	4298      	cmp	r0, r3
 8000aa2:	d301      	bcc.n	8000aa8 <__clzsi2+0x18>
 8000aa4:	0a00      	lsrs	r0, r0, #8
 8000aa6:	3908      	subs	r1, #8
 8000aa8:	091b      	lsrs	r3, r3, #4
 8000aaa:	4298      	cmp	r0, r3
 8000aac:	d301      	bcc.n	8000ab2 <__clzsi2+0x22>
 8000aae:	0900      	lsrs	r0, r0, #4
 8000ab0:	3904      	subs	r1, #4
 8000ab2:	a202      	add	r2, pc, #8	; (adr r2, 8000abc <__clzsi2+0x2c>)
 8000ab4:	5c10      	ldrb	r0, [r2, r0]
 8000ab6:	1840      	adds	r0, r0, r1
 8000ab8:	4770      	bx	lr
 8000aba:	46c0      	nop			; (mov r8, r8)
 8000abc:	02020304 	.word	0x02020304
 8000ac0:	01010101 	.word	0x01010101
	...

08000acc <__eqsf2>:
 8000acc:	b570      	push	{r4, r5, r6, lr}
 8000ace:	0042      	lsls	r2, r0, #1
 8000ad0:	024e      	lsls	r6, r1, #9
 8000ad2:	004c      	lsls	r4, r1, #1
 8000ad4:	0245      	lsls	r5, r0, #9
 8000ad6:	0a6d      	lsrs	r5, r5, #9
 8000ad8:	0e12      	lsrs	r2, r2, #24
 8000ada:	0fc3      	lsrs	r3, r0, #31
 8000adc:	0a76      	lsrs	r6, r6, #9
 8000ade:	0e24      	lsrs	r4, r4, #24
 8000ae0:	0fc9      	lsrs	r1, r1, #31
 8000ae2:	2aff      	cmp	r2, #255	; 0xff
 8000ae4:	d00f      	beq.n	8000b06 <__eqsf2+0x3a>
 8000ae6:	2cff      	cmp	r4, #255	; 0xff
 8000ae8:	d011      	beq.n	8000b0e <__eqsf2+0x42>
 8000aea:	2001      	movs	r0, #1
 8000aec:	42a2      	cmp	r2, r4
 8000aee:	d000      	beq.n	8000af2 <__eqsf2+0x26>
 8000af0:	bd70      	pop	{r4, r5, r6, pc}
 8000af2:	42b5      	cmp	r5, r6
 8000af4:	d1fc      	bne.n	8000af0 <__eqsf2+0x24>
 8000af6:	428b      	cmp	r3, r1
 8000af8:	d00d      	beq.n	8000b16 <__eqsf2+0x4a>
 8000afa:	2a00      	cmp	r2, #0
 8000afc:	d1f8      	bne.n	8000af0 <__eqsf2+0x24>
 8000afe:	0028      	movs	r0, r5
 8000b00:	1e45      	subs	r5, r0, #1
 8000b02:	41a8      	sbcs	r0, r5
 8000b04:	e7f4      	b.n	8000af0 <__eqsf2+0x24>
 8000b06:	2001      	movs	r0, #1
 8000b08:	2d00      	cmp	r5, #0
 8000b0a:	d1f1      	bne.n	8000af0 <__eqsf2+0x24>
 8000b0c:	e7eb      	b.n	8000ae6 <__eqsf2+0x1a>
 8000b0e:	2001      	movs	r0, #1
 8000b10:	2e00      	cmp	r6, #0
 8000b12:	d1ed      	bne.n	8000af0 <__eqsf2+0x24>
 8000b14:	e7e9      	b.n	8000aea <__eqsf2+0x1e>
 8000b16:	2000      	movs	r0, #0
 8000b18:	e7ea      	b.n	8000af0 <__eqsf2+0x24>
 8000b1a:	46c0      	nop			; (mov r8, r8)

08000b1c <__gesf2>:
 8000b1c:	b570      	push	{r4, r5, r6, lr}
 8000b1e:	004a      	lsls	r2, r1, #1
 8000b20:	024e      	lsls	r6, r1, #9
 8000b22:	0245      	lsls	r5, r0, #9
 8000b24:	0044      	lsls	r4, r0, #1
 8000b26:	0a6d      	lsrs	r5, r5, #9
 8000b28:	0e24      	lsrs	r4, r4, #24
 8000b2a:	0fc3      	lsrs	r3, r0, #31
 8000b2c:	0a76      	lsrs	r6, r6, #9
 8000b2e:	0e12      	lsrs	r2, r2, #24
 8000b30:	0fc9      	lsrs	r1, r1, #31
 8000b32:	2cff      	cmp	r4, #255	; 0xff
 8000b34:	d015      	beq.n	8000b62 <__gesf2+0x46>
 8000b36:	2aff      	cmp	r2, #255	; 0xff
 8000b38:	d00e      	beq.n	8000b58 <__gesf2+0x3c>
 8000b3a:	2c00      	cmp	r4, #0
 8000b3c:	d115      	bne.n	8000b6a <__gesf2+0x4e>
 8000b3e:	2a00      	cmp	r2, #0
 8000b40:	d101      	bne.n	8000b46 <__gesf2+0x2a>
 8000b42:	2e00      	cmp	r6, #0
 8000b44:	d01c      	beq.n	8000b80 <__gesf2+0x64>
 8000b46:	2d00      	cmp	r5, #0
 8000b48:	d014      	beq.n	8000b74 <__gesf2+0x58>
 8000b4a:	428b      	cmp	r3, r1
 8000b4c:	d027      	beq.n	8000b9e <__gesf2+0x82>
 8000b4e:	2002      	movs	r0, #2
 8000b50:	3b01      	subs	r3, #1
 8000b52:	4018      	ands	r0, r3
 8000b54:	3801      	subs	r0, #1
 8000b56:	bd70      	pop	{r4, r5, r6, pc}
 8000b58:	2e00      	cmp	r6, #0
 8000b5a:	d0ee      	beq.n	8000b3a <__gesf2+0x1e>
 8000b5c:	2002      	movs	r0, #2
 8000b5e:	4240      	negs	r0, r0
 8000b60:	e7f9      	b.n	8000b56 <__gesf2+0x3a>
 8000b62:	2d00      	cmp	r5, #0
 8000b64:	d1fa      	bne.n	8000b5c <__gesf2+0x40>
 8000b66:	2aff      	cmp	r2, #255	; 0xff
 8000b68:	d00e      	beq.n	8000b88 <__gesf2+0x6c>
 8000b6a:	2a00      	cmp	r2, #0
 8000b6c:	d10e      	bne.n	8000b8c <__gesf2+0x70>
 8000b6e:	2e00      	cmp	r6, #0
 8000b70:	d0ed      	beq.n	8000b4e <__gesf2+0x32>
 8000b72:	e00b      	b.n	8000b8c <__gesf2+0x70>
 8000b74:	2301      	movs	r3, #1
 8000b76:	3901      	subs	r1, #1
 8000b78:	4399      	bics	r1, r3
 8000b7a:	0008      	movs	r0, r1
 8000b7c:	3001      	adds	r0, #1
 8000b7e:	e7ea      	b.n	8000b56 <__gesf2+0x3a>
 8000b80:	2000      	movs	r0, #0
 8000b82:	2d00      	cmp	r5, #0
 8000b84:	d0e7      	beq.n	8000b56 <__gesf2+0x3a>
 8000b86:	e7e2      	b.n	8000b4e <__gesf2+0x32>
 8000b88:	2e00      	cmp	r6, #0
 8000b8a:	d1e7      	bne.n	8000b5c <__gesf2+0x40>
 8000b8c:	428b      	cmp	r3, r1
 8000b8e:	d1de      	bne.n	8000b4e <__gesf2+0x32>
 8000b90:	4294      	cmp	r4, r2
 8000b92:	dd05      	ble.n	8000ba0 <__gesf2+0x84>
 8000b94:	2102      	movs	r1, #2
 8000b96:	1e58      	subs	r0, r3, #1
 8000b98:	4008      	ands	r0, r1
 8000b9a:	3801      	subs	r0, #1
 8000b9c:	e7db      	b.n	8000b56 <__gesf2+0x3a>
 8000b9e:	2400      	movs	r4, #0
 8000ba0:	42a2      	cmp	r2, r4
 8000ba2:	dc04      	bgt.n	8000bae <__gesf2+0x92>
 8000ba4:	42b5      	cmp	r5, r6
 8000ba6:	d8d2      	bhi.n	8000b4e <__gesf2+0x32>
 8000ba8:	2000      	movs	r0, #0
 8000baa:	42b5      	cmp	r5, r6
 8000bac:	d2d3      	bcs.n	8000b56 <__gesf2+0x3a>
 8000bae:	1e58      	subs	r0, r3, #1
 8000bb0:	2301      	movs	r3, #1
 8000bb2:	4398      	bics	r0, r3
 8000bb4:	3001      	adds	r0, #1
 8000bb6:	e7ce      	b.n	8000b56 <__gesf2+0x3a>

08000bb8 <__lesf2>:
 8000bb8:	b530      	push	{r4, r5, lr}
 8000bba:	0042      	lsls	r2, r0, #1
 8000bbc:	0244      	lsls	r4, r0, #9
 8000bbe:	024d      	lsls	r5, r1, #9
 8000bc0:	0fc3      	lsrs	r3, r0, #31
 8000bc2:	0048      	lsls	r0, r1, #1
 8000bc4:	0a64      	lsrs	r4, r4, #9
 8000bc6:	0e12      	lsrs	r2, r2, #24
 8000bc8:	0a6d      	lsrs	r5, r5, #9
 8000bca:	0e00      	lsrs	r0, r0, #24
 8000bcc:	0fc9      	lsrs	r1, r1, #31
 8000bce:	2aff      	cmp	r2, #255	; 0xff
 8000bd0:	d012      	beq.n	8000bf8 <__lesf2+0x40>
 8000bd2:	28ff      	cmp	r0, #255	; 0xff
 8000bd4:	d00c      	beq.n	8000bf0 <__lesf2+0x38>
 8000bd6:	2a00      	cmp	r2, #0
 8000bd8:	d112      	bne.n	8000c00 <__lesf2+0x48>
 8000bda:	2800      	cmp	r0, #0
 8000bdc:	d119      	bne.n	8000c12 <__lesf2+0x5a>
 8000bde:	2d00      	cmp	r5, #0
 8000be0:	d117      	bne.n	8000c12 <__lesf2+0x5a>
 8000be2:	2c00      	cmp	r4, #0
 8000be4:	d02b      	beq.n	8000c3e <__lesf2+0x86>
 8000be6:	2002      	movs	r0, #2
 8000be8:	3b01      	subs	r3, #1
 8000bea:	4018      	ands	r0, r3
 8000bec:	3801      	subs	r0, #1
 8000bee:	e026      	b.n	8000c3e <__lesf2+0x86>
 8000bf0:	2d00      	cmp	r5, #0
 8000bf2:	d0f0      	beq.n	8000bd6 <__lesf2+0x1e>
 8000bf4:	2002      	movs	r0, #2
 8000bf6:	e022      	b.n	8000c3e <__lesf2+0x86>
 8000bf8:	2c00      	cmp	r4, #0
 8000bfa:	d1fb      	bne.n	8000bf4 <__lesf2+0x3c>
 8000bfc:	28ff      	cmp	r0, #255	; 0xff
 8000bfe:	d01f      	beq.n	8000c40 <__lesf2+0x88>
 8000c00:	2800      	cmp	r0, #0
 8000c02:	d11f      	bne.n	8000c44 <__lesf2+0x8c>
 8000c04:	2d00      	cmp	r5, #0
 8000c06:	d11d      	bne.n	8000c44 <__lesf2+0x8c>
 8000c08:	2002      	movs	r0, #2
 8000c0a:	3b01      	subs	r3, #1
 8000c0c:	4018      	ands	r0, r3
 8000c0e:	3801      	subs	r0, #1
 8000c10:	e015      	b.n	8000c3e <__lesf2+0x86>
 8000c12:	2c00      	cmp	r4, #0
 8000c14:	d00e      	beq.n	8000c34 <__lesf2+0x7c>
 8000c16:	428b      	cmp	r3, r1
 8000c18:	d1e5      	bne.n	8000be6 <__lesf2+0x2e>
 8000c1a:	2200      	movs	r2, #0
 8000c1c:	4290      	cmp	r0, r2
 8000c1e:	dc04      	bgt.n	8000c2a <__lesf2+0x72>
 8000c20:	42ac      	cmp	r4, r5
 8000c22:	d8e0      	bhi.n	8000be6 <__lesf2+0x2e>
 8000c24:	2000      	movs	r0, #0
 8000c26:	42ac      	cmp	r4, r5
 8000c28:	d209      	bcs.n	8000c3e <__lesf2+0x86>
 8000c2a:	1e58      	subs	r0, r3, #1
 8000c2c:	2301      	movs	r3, #1
 8000c2e:	4398      	bics	r0, r3
 8000c30:	3001      	adds	r0, #1
 8000c32:	e004      	b.n	8000c3e <__lesf2+0x86>
 8000c34:	2301      	movs	r3, #1
 8000c36:	3901      	subs	r1, #1
 8000c38:	4399      	bics	r1, r3
 8000c3a:	0008      	movs	r0, r1
 8000c3c:	3001      	adds	r0, #1
 8000c3e:	bd30      	pop	{r4, r5, pc}
 8000c40:	2d00      	cmp	r5, #0
 8000c42:	d1d7      	bne.n	8000bf4 <__lesf2+0x3c>
 8000c44:	428b      	cmp	r3, r1
 8000c46:	d1ce      	bne.n	8000be6 <__lesf2+0x2e>
 8000c48:	4282      	cmp	r2, r0
 8000c4a:	dde7      	ble.n	8000c1c <__lesf2+0x64>
 8000c4c:	2102      	movs	r1, #2
 8000c4e:	1e58      	subs	r0, r3, #1
 8000c50:	4008      	ands	r0, r1
 8000c52:	3801      	subs	r0, #1
 8000c54:	e7f3      	b.n	8000c3e <__lesf2+0x86>
 8000c56:	46c0      	nop			; (mov r8, r8)

08000c58 <wait_init>:
#include "stm32f0xx.h"

// konfiguracja timera opnienia
void wait_init(void){
 8000c58:	b580      	push	{r7, lr}
 8000c5a:	af00      	add	r7, sp, #0
	RCC->APB2ENR |= RCC_APB2ENR_TIM17EN;	// enable TIM17 clock
 8000c5c:	4b0a      	ldr	r3, [pc, #40]	; (8000c88 <wait_init+0x30>)
 8000c5e:	699a      	ldr	r2, [r3, #24]
 8000c60:	4b09      	ldr	r3, [pc, #36]	; (8000c88 <wait_init+0x30>)
 8000c62:	2180      	movs	r1, #128	; 0x80
 8000c64:	02c9      	lsls	r1, r1, #11
 8000c66:	430a      	orrs	r2, r1
 8000c68:	619a      	str	r2, [r3, #24]
	TIM17->CR1 = 0;
 8000c6a:	4b08      	ldr	r3, [pc, #32]	; (8000c8c <wait_init+0x34>)
 8000c6c:	2200      	movs	r2, #0
 8000c6e:	801a      	strh	r2, [r3, #0]
	TIM17->PSC = 48-1;			// F = 1kHz
 8000c70:	4b06      	ldr	r3, [pc, #24]	; (8000c8c <wait_init+0x34>)
 8000c72:	222f      	movs	r2, #47	; 0x2f
 8000c74:	851a      	strh	r2, [r3, #40]	; 0x28
	TIM17->CR1 = TIM_CR1_CEN;		// counter enabled
 8000c76:	4b05      	ldr	r3, [pc, #20]	; (8000c8c <wait_init+0x34>)
 8000c78:	2201      	movs	r2, #1
 8000c7a:	801a      	strh	r2, [r3, #0]
	TIM17->EGR = 1;				// trigger update event to reload timer registers
 8000c7c:	4b03      	ldr	r3, [pc, #12]	; (8000c8c <wait_init+0x34>)
 8000c7e:	2201      	movs	r2, #1
 8000c80:	829a      	strh	r2, [r3, #20]
}
 8000c82:	46c0      	nop			; (mov r8, r8)
 8000c84:	46bd      	mov	sp, r7
 8000c86:	bd80      	pop	{r7, pc}
 8000c88:	40021000 	.word	0x40021000
 8000c8c:	40014800 	.word	0x40014800

08000c90 <waitus>:

// opnienie w us
void waitus(uint32_t time){
 8000c90:	b580      	push	{r7, lr}
 8000c92:	b082      	sub	sp, #8
 8000c94:	af00      	add	r7, sp, #0
 8000c96:	6078      	str	r0, [r7, #4]
	time = time+TIM17->CNT;
 8000c98:	4b09      	ldr	r3, [pc, #36]	; (8000cc0 <waitus+0x30>)
 8000c9a:	6a5b      	ldr	r3, [r3, #36]	; 0x24
 8000c9c:	687a      	ldr	r2, [r7, #4]
 8000c9e:	18d3      	adds	r3, r2, r3
 8000ca0:	607b      	str	r3, [r7, #4]
	while((uint16_t)(time - TIM17->CNT) < 0x8000){}
 8000ca2:	46c0      	nop			; (mov r8, r8)
 8000ca4:	687b      	ldr	r3, [r7, #4]
 8000ca6:	b29a      	uxth	r2, r3
 8000ca8:	4b05      	ldr	r3, [pc, #20]	; (8000cc0 <waitus+0x30>)
 8000caa:	6a5b      	ldr	r3, [r3, #36]	; 0x24
 8000cac:	b29b      	uxth	r3, r3
 8000cae:	1ad3      	subs	r3, r2, r3
 8000cb0:	b29b      	uxth	r3, r3
 8000cb2:	b21b      	sxth	r3, r3
 8000cb4:	2b00      	cmp	r3, #0
 8000cb6:	daf5      	bge.n	8000ca4 <waitus+0x14>
}
 8000cb8:	46c0      	nop			; (mov r8, r8)
 8000cba:	46bd      	mov	sp, r7
 8000cbc:	b002      	add	sp, #8
 8000cbe:	bd80      	pop	{r7, pc}
 8000cc0:	40014800 	.word	0x40014800

08000cc4 <waitms>:

// opnienie w ms
void waitms(uint32_t time){
 8000cc4:	b580      	push	{r7, lr}
 8000cc6:	b082      	sub	sp, #8
 8000cc8:	af00      	add	r7, sp, #0
 8000cca:	6078      	str	r0, [r7, #4]
	while(time--) waitus(1000);
 8000ccc:	e004      	b.n	8000cd8 <waitms+0x14>
 8000cce:	23fa      	movs	r3, #250	; 0xfa
 8000cd0:	009b      	lsls	r3, r3, #2
 8000cd2:	0018      	movs	r0, r3
 8000cd4:	f7ff ffdc 	bl	8000c90 <waitus>
 8000cd8:	687b      	ldr	r3, [r7, #4]
 8000cda:	1e5a      	subs	r2, r3, #1
 8000cdc:	607a      	str	r2, [r7, #4]
 8000cde:	2b00      	cmp	r3, #0
 8000ce0:	d1f5      	bne.n	8000cce <waitms+0xa>
}
 8000ce2:	46c0      	nop			; (mov r8, r8)
 8000ce4:	46bd      	mov	sp, r7
 8000ce6:	b002      	add	sp, #8
 8000ce8:	bd80      	pop	{r7, pc}
	...

08000cec <main>:




int main(void)
{
 8000cec:	b580      	push	{r7, lr}
 8000cee:	af00      	add	r7, sp, #0
	/* Enable Prefetch Buffer, Flash 1 wait state */
	FLASH->ACR |= FLASH_ACR_PRFTBE | FLASH_ACR_LATENCY;
 8000cf0:	4b58      	ldr	r3, [pc, #352]	; (8000e54 <main+0x168>)
 8000cf2:	681a      	ldr	r2, [r3, #0]
 8000cf4:	4b57      	ldr	r3, [pc, #348]	; (8000e54 <main+0x168>)
 8000cf6:	2111      	movs	r1, #17
 8000cf8:	430a      	orrs	r2, r1
 8000cfa:	601a      	str	r2, [r3, #0]
	/* PLLCLK = HSI/2 * 12 = 48 MHz */
	RCC->CFGR |= RCC_CFGR_PLLMULL12;
 8000cfc:	4b56      	ldr	r3, [pc, #344]	; (8000e58 <main+0x16c>)
 8000cfe:	685a      	ldr	r2, [r3, #4]
 8000d00:	4b55      	ldr	r3, [pc, #340]	; (8000e58 <main+0x16c>)
 8000d02:	21a0      	movs	r1, #160	; 0xa0
 8000d04:	0389      	lsls	r1, r1, #14
 8000d06:	430a      	orrs	r2, r1
 8000d08:	605a      	str	r2, [r3, #4]
	/* Enable PLL */
	RCC->CR |= RCC_CR_PLLON;
 8000d0a:	4b53      	ldr	r3, [pc, #332]	; (8000e58 <main+0x16c>)
 8000d0c:	681a      	ldr	r2, [r3, #0]
 8000d0e:	4b52      	ldr	r3, [pc, #328]	; (8000e58 <main+0x16c>)
 8000d10:	2180      	movs	r1, #128	; 0x80
 8000d12:	0449      	lsls	r1, r1, #17
 8000d14:	430a      	orrs	r2, r1
 8000d16:	601a      	str	r2, [r3, #0]
	/* Wait till PLL is ready */
	while((RCC->CR & RCC_CR_PLLRDY) == 0){}
 8000d18:	46c0      	nop			; (mov r8, r8)
 8000d1a:	4b4f      	ldr	r3, [pc, #316]	; (8000e58 <main+0x16c>)
 8000d1c:	681a      	ldr	r2, [r3, #0]
 8000d1e:	2380      	movs	r3, #128	; 0x80
 8000d20:	049b      	lsls	r3, r3, #18
 8000d22:	4013      	ands	r3, r2
 8000d24:	d0f9      	beq.n	8000d1a <main+0x2e>
	/* Select PLL as system clock source */
	RCC->CFGR |= RCC_CFGR_SW_PLL;
 8000d26:	4b4c      	ldr	r3, [pc, #304]	; (8000e58 <main+0x16c>)
 8000d28:	685a      	ldr	r2, [r3, #4]
 8000d2a:	4b4b      	ldr	r3, [pc, #300]	; (8000e58 <main+0x16c>)
 8000d2c:	2102      	movs	r1, #2
 8000d2e:	430a      	orrs	r2, r1
 8000d30:	605a      	str	r2, [r3, #4]
	/* Wait till PLL is used as system clock source */
	while ((RCC->CFGR & RCC_CFGR_SWS) != 0x08){}
 8000d32:	46c0      	nop			; (mov r8, r8)
 8000d34:	4b48      	ldr	r3, [pc, #288]	; (8000e58 <main+0x16c>)
 8000d36:	685b      	ldr	r3, [r3, #4]
 8000d38:	220c      	movs	r2, #12
 8000d3a:	4013      	ands	r3, r2
 8000d3c:	2b08      	cmp	r3, #8
 8000d3e:	d1f9      	bne.n	8000d34 <main+0x48>


	wait_init();
 8000d40:	f7ff ff8a 	bl	8000c58 <wait_init>


	//================ GPIO ================

	RCC->AHBENR |= RCC_AHBENR_GPIOFEN | RCC_AHBENR_GPIOBEN | RCC_AHBENR_GPIOAEN;
 8000d44:	4b44      	ldr	r3, [pc, #272]	; (8000e58 <main+0x16c>)
 8000d46:	695a      	ldr	r2, [r3, #20]
 8000d48:	4b43      	ldr	r3, [pc, #268]	; (8000e58 <main+0x16c>)
 8000d4a:	218c      	movs	r1, #140	; 0x8c
 8000d4c:	03c9      	lsls	r1, r1, #15
 8000d4e:	430a      	orrs	r2, r1
 8000d50:	615a      	str	r2, [r3, #20]

	GPIOA->PUPDR = 0x24140141;
 8000d52:	2390      	movs	r3, #144	; 0x90
 8000d54:	05db      	lsls	r3, r3, #23
 8000d56:	4a41      	ldr	r2, [pc, #260]	; (8000e5c <main+0x170>)
 8000d58:	60da      	str	r2, [r3, #12]
	GPIOA->ODR = 0x00000000;
 8000d5a:	2390      	movs	r3, #144	; 0x90
 8000d5c:	05db      	lsls	r3, r3, #23
 8000d5e:	2200      	movs	r2, #0
 8000d60:	829a      	strh	r2, [r3, #20]
	GPIOA->AFR[0] = 0x01001100;
 8000d62:	2390      	movs	r3, #144	; 0x90
 8000d64:	05db      	lsls	r3, r3, #23
 8000d66:	4a3e      	ldr	r2, [pc, #248]	; (8000e60 <main+0x174>)
 8000d68:	621a      	str	r2, [r3, #32]
	GPIOA->AFR[1] = 0x00000440;
 8000d6a:	2390      	movs	r3, #144	; 0x90
 8000d6c:	05db      	lsls	r3, r3, #23
 8000d6e:	2288      	movs	r2, #136	; 0x88
 8000d70:	00d2      	lsls	r2, r2, #3
 8000d72:	625a      	str	r2, [r3, #36]	; 0x24
	GPIOA->MODER = 0x2828A8A4;
 8000d74:	2390      	movs	r3, #144	; 0x90
 8000d76:	05db      	lsls	r3, r3, #23
 8000d78:	4a3a      	ldr	r2, [pc, #232]	; (8000e64 <main+0x178>)
 8000d7a:	601a      	str	r2, [r3, #0]

	GPIOB->AFR[0] = 0x00000010;
 8000d7c:	4b3a      	ldr	r3, [pc, #232]	; (8000e68 <main+0x17c>)
 8000d7e:	2210      	movs	r2, #16
 8000d80:	621a      	str	r2, [r3, #32]
	GPIOB->MODER = 0x00000008;
 8000d82:	4b39      	ldr	r3, [pc, #228]	; (8000e68 <main+0x17c>)
 8000d84:	2208      	movs	r2, #8
 8000d86:	601a      	str	r2, [r3, #0]

	GPIOF->ODR = 0x00000000;
 8000d88:	4b38      	ldr	r3, [pc, #224]	; (8000e6c <main+0x180>)
 8000d8a:	2200      	movs	r2, #0
 8000d8c:	829a      	strh	r2, [r3, #20]
	GPIOF->MODER = 0x00000004;
 8000d8e:	4b37      	ldr	r3, [pc, #220]	; (8000e6c <main+0x180>)
 8000d90:	2204      	movs	r2, #4
 8000d92:	601a      	str	r2, [r3, #0]

	//================ DMA ================

	RCC->AHBENR |= RCC_AHBENR_DMA1EN;
 8000d94:	4b30      	ldr	r3, [pc, #192]	; (8000e58 <main+0x16c>)
 8000d96:	695a      	ldr	r2, [r3, #20]
 8000d98:	4b2f      	ldr	r3, [pc, #188]	; (8000e58 <main+0x16c>)
 8000d9a:	2101      	movs	r1, #1
 8000d9c:	430a      	orrs	r2, r1
 8000d9e:	615a      	str	r2, [r3, #20]
	DMA1_Channel2->CCR = 0;
 8000da0:	4b33      	ldr	r3, [pc, #204]	; (8000e70 <main+0x184>)
 8000da2:	2200      	movs	r2, #0
 8000da4:	601a      	str	r2, [r3, #0]
	DMA1_Channel2->CNDTR = 1;
 8000da6:	4b32      	ldr	r3, [pc, #200]	; (8000e70 <main+0x184>)
 8000da8:	2201      	movs	r2, #1
 8000daa:	605a      	str	r2, [r3, #4]
	DMA1_Channel2->CPAR = (uint32_t)&GPIOF->IDR;
 8000dac:	4b30      	ldr	r3, [pc, #192]	; (8000e70 <main+0x184>)
 8000dae:	4a31      	ldr	r2, [pc, #196]	; (8000e74 <main+0x188>)
 8000db0:	609a      	str	r2, [r3, #8]
	DMA1_Channel2->CMAR = (uint32_t)&TIM3->CNT;
 8000db2:	4b2f      	ldr	r3, [pc, #188]	; (8000e70 <main+0x184>)
 8000db4:	4a30      	ldr	r2, [pc, #192]	; (8000e78 <main+0x18c>)
 8000db6:	60da      	str	r2, [r3, #12]
	DMA1_Channel2->CCR = DMA_CCR_MSIZE_0 | DMA_CCR_CIRC |DMA_CCR_EN;
 8000db8:	4b2d      	ldr	r3, [pc, #180]	; (8000e70 <main+0x184>)
 8000dba:	4a30      	ldr	r2, [pc, #192]	; (8000e7c <main+0x190>)
 8000dbc:	601a      	str	r2, [r3, #0]

	//================ TIM3 ================

	RCC->APB1ENR |= RCC_APB1ENR_TIM3EN;
 8000dbe:	4b26      	ldr	r3, [pc, #152]	; (8000e58 <main+0x16c>)
 8000dc0:	69da      	ldr	r2, [r3, #28]
 8000dc2:	4b25      	ldr	r3, [pc, #148]	; (8000e58 <main+0x16c>)
 8000dc4:	2102      	movs	r1, #2
 8000dc6:	430a      	orrs	r2, r1
 8000dc8:	61da      	str	r2, [r3, #28]
	TIM3->CR1 = 0;
 8000dca:	4b2d      	ldr	r3, [pc, #180]	; (8000e80 <main+0x194>)
 8000dcc:	2200      	movs	r2, #0
 8000dce:	801a      	strh	r2, [r3, #0]
	TIM3->SMCR = 0x0056;
 8000dd0:	4b2b      	ldr	r3, [pc, #172]	; (8000e80 <main+0x194>)
 8000dd2:	2256      	movs	r2, #86	; 0x56
 8000dd4:	811a      	strh	r2, [r3, #8]
	TIM3->PSC = 17;
 8000dd6:	4b2a      	ldr	r3, [pc, #168]	; (8000e80 <main+0x194>)
 8000dd8:	2211      	movs	r2, #17
 8000dda:	851a      	strh	r2, [r3, #40]	; 0x28
	TIM3->ARR = 3;
 8000ddc:	4b28      	ldr	r3, [pc, #160]	; (8000e80 <main+0x194>)
 8000dde:	2203      	movs	r2, #3
 8000de0:	62da      	str	r2, [r3, #44]	; 0x2c
	TIM3->CCR3 = 2;
 8000de2:	4b27      	ldr	r3, [pc, #156]	; (8000e80 <main+0x194>)
 8000de4:	2202      	movs	r2, #2
 8000de6:	63da      	str	r2, [r3, #60]	; 0x3c
	TIM3->CCR4 = 2;
 8000de8:	4b25      	ldr	r3, [pc, #148]	; (8000e80 <main+0x194>)
 8000dea:	2202      	movs	r2, #2
 8000dec:	641a      	str	r2, [r3, #64]	; 0x40
	TIM3->CCMR1 = 0x0001;
 8000dee:	4b24      	ldr	r3, [pc, #144]	; (8000e80 <main+0x194>)
 8000df0:	2201      	movs	r2, #1
 8000df2:	831a      	strh	r2, [r3, #24]
	TIM3->CCMR2 = 0x6000;
 8000df4:	4b22      	ldr	r3, [pc, #136]	; (8000e80 <main+0x194>)
 8000df6:	22c0      	movs	r2, #192	; 0xc0
 8000df8:	01d2      	lsls	r2, r2, #7
 8000dfa:	839a      	strh	r2, [r3, #28]
	TIM3->CCER = 0x1001;
 8000dfc:	4b20      	ldr	r3, [pc, #128]	; (8000e80 <main+0x194>)
 8000dfe:	4a21      	ldr	r2, [pc, #132]	; (8000e84 <main+0x198>)
 8000e00:	841a      	strh	r2, [r3, #32]
	TIM3->DIER = 0x0800;
 8000e02:	4b1f      	ldr	r3, [pc, #124]	; (8000e80 <main+0x194>)
 8000e04:	2280      	movs	r2, #128	; 0x80
 8000e06:	0112      	lsls	r2, r2, #4
 8000e08:	819a      	strh	r2, [r3, #12]
	TIM3->CR1 = TIM_CR1_OPM | TIM_CR1_DIR | TIM_CR1_CEN;
 8000e0a:	4b1d      	ldr	r3, [pc, #116]	; (8000e80 <main+0x194>)
 8000e0c:	2219      	movs	r2, #25
 8000e0e:	801a      	strh	r2, [r3, #0]

	//================ SPI ================

	RCC->APB2ENR |= RCC_APB2ENR_SPI1EN;
 8000e10:	4b11      	ldr	r3, [pc, #68]	; (8000e58 <main+0x16c>)
 8000e12:	699a      	ldr	r2, [r3, #24]
 8000e14:	4b10      	ldr	r3, [pc, #64]	; (8000e58 <main+0x16c>)
 8000e16:	2180      	movs	r1, #128	; 0x80
 8000e18:	0149      	lsls	r1, r1, #5
 8000e1a:	430a      	orrs	r2, r1
 8000e1c:	619a      	str	r2, [r3, #24]
	SPI1->CR1 = SPI_CR1_MSTR | SPI_CR1_BR_0*5 | SPI_CR1_CPHA;
 8000e1e:	4b1a      	ldr	r3, [pc, #104]	; (8000e88 <main+0x19c>)
 8000e20:	222d      	movs	r2, #45	; 0x2d
 8000e22:	801a      	strh	r2, [r3, #0]
	SPI1->CR2 = SPI_CR2_SSOE;
 8000e24:	4b18      	ldr	r3, [pc, #96]	; (8000e88 <main+0x19c>)
 8000e26:	2204      	movs	r2, #4
 8000e28:	809a      	strh	r2, [r3, #4]
	SPI1->CR1 |= SPI_CR1_SPE;
 8000e2a:	4b17      	ldr	r3, [pc, #92]	; (8000e88 <main+0x19c>)
 8000e2c:	881b      	ldrh	r3, [r3, #0]
 8000e2e:	b29b      	uxth	r3, r3
 8000e30:	4a15      	ldr	r2, [pc, #84]	; (8000e88 <main+0x19c>)
 8000e32:	2140      	movs	r1, #64	; 0x40
 8000e34:	430b      	orrs	r3, r1
 8000e36:	b29b      	uxth	r3, r3
 8000e38:	8013      	strh	r3, [r2, #0]

	//================USART==================



	USART1->CR1 |= USART_CR1_UE; // enables USART
 8000e3a:	4b14      	ldr	r3, [pc, #80]	; (8000e8c <main+0x1a0>)
 8000e3c:	681a      	ldr	r2, [r3, #0]
 8000e3e:	4b13      	ldr	r3, [pc, #76]	; (8000e8c <main+0x1a0>)
 8000e40:	2101      	movs	r1, #1
 8000e42:	430a      	orrs	r2, r1
 8000e44:	601a      	str	r2, [r3, #0]
	//=======================================

	  /* USART resources configuration (Clock, GPIO pins and USART registers) ----*/


	efekt1();
 8000e46:	f000 f823 	bl	8000e90 <efekt1>

	//while(1){}


	return 0;
 8000e4a:	2300      	movs	r3, #0
}
 8000e4c:	0018      	movs	r0, r3
 8000e4e:	46bd      	mov	sp, r7
 8000e50:	bd80      	pop	{r7, pc}
 8000e52:	46c0      	nop			; (mov r8, r8)
 8000e54:	40022000 	.word	0x40022000
 8000e58:	40021000 	.word	0x40021000
 8000e5c:	24140141 	.word	0x24140141
 8000e60:	01001100 	.word	0x01001100
 8000e64:	2828a8a4 	.word	0x2828a8a4
 8000e68:	48000400 	.word	0x48000400
 8000e6c:	48001400 	.word	0x48001400
 8000e70:	4002001c 	.word	0x4002001c
 8000e74:	48001410 	.word	0x48001410
 8000e78:	40000424 	.word	0x40000424
 8000e7c:	00000421 	.word	0x00000421
 8000e80:	40000400 	.word	0x40000400
 8000e84:	00001001 	.word	0x00001001
 8000e88:	40013000 	.word	0x40013000
 8000e8c:	40013800 	.word	0x40013800

08000e90 <efekt1>:


void efekt1(void)
{
 8000e90:	b580      	push	{r7, lr}
 8000e92:	af00      	add	r7, sp, #0
	//uint16_t i, j=0, color;

	for(i=0; i<10; i++)
 8000e94:	4be4      	ldr	r3, [pc, #912]	; (8001228 <efekt1+0x398>)
 8000e96:	2200      	movs	r2, #0
 8000e98:	701a      	strb	r2, [r3, #0]
 8000e9a:	e00a      	b.n	8000eb2 <efekt1+0x22>
	{
		flush_leds();
 8000e9c:	f000 fbe2 	bl	8001664 <flush_leds>
		waitms(1);
 8000ea0:	2001      	movs	r0, #1
 8000ea2:	f7ff ff0f 	bl	8000cc4 <waitms>
	for(i=0; i<10; i++)
 8000ea6:	4be0      	ldr	r3, [pc, #896]	; (8001228 <efekt1+0x398>)
 8000ea8:	781b      	ldrb	r3, [r3, #0]
 8000eaa:	3301      	adds	r3, #1
 8000eac:	b2da      	uxtb	r2, r3
 8000eae:	4bde      	ldr	r3, [pc, #888]	; (8001228 <efekt1+0x398>)
 8000eb0:	701a      	strb	r2, [r3, #0]
 8000eb2:	4bdd      	ldr	r3, [pc, #884]	; (8001228 <efekt1+0x398>)
 8000eb4:	781b      	ldrb	r3, [r3, #0]
 8000eb6:	2b09      	cmp	r3, #9
 8000eb8:	d9f0      	bls.n	8000e9c <efekt1+0xc>
	}

	initUsart();
 8000eba:	f000 fbf5 	bl	80016a8 <initUsart>



	while(1)
	{
		reciveFrame();
 8000ebe:	f000 fc4d 	bl	800175c <reciveFrame>

		tempomat = tx_buf[1];
 8000ec2:	4bda      	ldr	r3, [pc, #872]	; (800122c <efekt1+0x39c>)
 8000ec4:	785a      	ldrb	r2, [r3, #1]
 8000ec6:	4bda      	ldr	r3, [pc, #872]	; (8001230 <efekt1+0x3a0>)
 8000ec8:	701a      	strb	r2, [r3, #0]
		 jasnosc = tx_buf[7];
 8000eca:	4bd8      	ldr	r3, [pc, #864]	; (800122c <efekt1+0x39c>)
 8000ecc:	79db      	ldrb	r3, [r3, #7]
 8000ece:	001a      	movs	r2, r3
 8000ed0:	4bd8      	ldr	r3, [pc, #864]	; (8001234 <efekt1+0x3a4>)
 8000ed2:	601a      	str	r2, [r3, #0]
		//jasnosc = 99;
		 tryb = tx_buf[8];
 8000ed4:	4bd5      	ldr	r3, [pc, #852]	; (800122c <efekt1+0x39c>)
 8000ed6:	7a1a      	ldrb	r2, [r3, #8]
 8000ed8:	4bd7      	ldr	r3, [pc, #860]	; (8001238 <efekt1+0x3a8>)
 8000eda:	701a      	strb	r2, [r3, #0]
		 charging = tx_buf[4];
 8000edc:	4bd3      	ldr	r3, [pc, #844]	; (800122c <efekt1+0x39c>)
 8000ede:	791a      	ldrb	r2, [r3, #4]
 8000ee0:	4bd6      	ldr	r3, [pc, #856]	; (800123c <efekt1+0x3ac>)
 8000ee2:	701a      	strb	r2, [r3, #0]
		 power = tx_buf[3];
 8000ee4:	4bd1      	ldr	r3, [pc, #836]	; (800122c <efekt1+0x39c>)
 8000ee6:	78da      	ldrb	r2, [r3, #3]
 8000ee8:	4bd5      	ldr	r3, [pc, #852]	; (8001240 <efekt1+0x3b0>)
 8000eea:	701a      	strb	r2, [r3, #0]
		 battery = tx_buf[2];
 8000eec:	4bcf      	ldr	r3, [pc, #828]	; (800122c <efekt1+0x39c>)
 8000eee:	789a      	ldrb	r2, [r3, #2]
 8000ef0:	4bd4      	ldr	r3, [pc, #848]	; (8001244 <efekt1+0x3b4>)
 8000ef2:	701a      	strb	r2, [r3, #0]
		 LED1= tx_buf[5];
 8000ef4:	4bcd      	ldr	r3, [pc, #820]	; (800122c <efekt1+0x39c>)
 8000ef6:	795a      	ldrb	r2, [r3, #5]
 8000ef8:	4bd3      	ldr	r3, [pc, #844]	; (8001248 <efekt1+0x3b8>)
 8000efa:	701a      	strb	r2, [r3, #0]
		 LED2= tx_buf[6];
 8000efc:	4bcb      	ldr	r3, [pc, #812]	; (800122c <efekt1+0x39c>)
 8000efe:	799a      	ldrb	r2, [r3, #6]
 8000f00:	4bd2      	ldr	r3, [pc, #840]	; (800124c <efekt1+0x3bc>)
 8000f02:	701a      	strb	r2, [r3, #0]
		 speed = tx_buf[0];
 8000f04:	4bc9      	ldr	r3, [pc, #804]	; (800122c <efekt1+0x39c>)
 8000f06:	781a      	ldrb	r2, [r3, #0]
 8000f08:	4bd1      	ldr	r3, [pc, #836]	; (8001250 <efekt1+0x3c0>)
 8000f0a:	701a      	strb	r2, [r3, #0]

		//transmitFrame();

		jasnosc_wsp =  (float) jasnosc / 255;
 8000f0c:	4bc9      	ldr	r3, [pc, #804]	; (8001234 <efekt1+0x3a4>)
 8000f0e:	681b      	ldr	r3, [r3, #0]
 8000f10:	0018      	movs	r0, r3
 8000f12:	f7ff fd39 	bl	8000988 <__aeabi_i2f>
 8000f16:	1c03      	adds	r3, r0, #0
 8000f18:	49ce      	ldr	r1, [pc, #824]	; (8001254 <efekt1+0x3c4>)
 8000f1a:	1c18      	adds	r0, r3, #0
 8000f1c:	f7ff f90c 	bl	8000138 <__aeabi_fdiv>
 8000f20:	1c03      	adds	r3, r0, #0
 8000f22:	1c1a      	adds	r2, r3, #0
 8000f24:	4bcc      	ldr	r3, [pc, #816]	; (8001258 <efekt1+0x3c8>)
 8000f26:	601a      	str	r2, [r3, #0]


		ICON1 = (LED1 >> 0) & 1;
 8000f28:	4bc7      	ldr	r3, [pc, #796]	; (8001248 <efekt1+0x3b8>)
 8000f2a:	781b      	ldrb	r3, [r3, #0]
 8000f2c:	2201      	movs	r2, #1
 8000f2e:	4013      	ands	r3, r2
 8000f30:	b2da      	uxtb	r2, r3
 8000f32:	4bca      	ldr	r3, [pc, #808]	; (800125c <efekt1+0x3cc>)
 8000f34:	701a      	strb	r2, [r3, #0]
		ICON2 = (LED1 >> 1) & 1;
 8000f36:	4bc4      	ldr	r3, [pc, #784]	; (8001248 <efekt1+0x3b8>)
 8000f38:	781b      	ldrb	r3, [r3, #0]
 8000f3a:	085b      	lsrs	r3, r3, #1
 8000f3c:	b2db      	uxtb	r3, r3
 8000f3e:	2201      	movs	r2, #1
 8000f40:	4013      	ands	r3, r2
 8000f42:	b2da      	uxtb	r2, r3
 8000f44:	4bc6      	ldr	r3, [pc, #792]	; (8001260 <efekt1+0x3d0>)
 8000f46:	701a      	strb	r2, [r3, #0]
		ICON3 = (LED1 >> 2) & 1;
 8000f48:	4bbf      	ldr	r3, [pc, #764]	; (8001248 <efekt1+0x3b8>)
 8000f4a:	781b      	ldrb	r3, [r3, #0]
 8000f4c:	089b      	lsrs	r3, r3, #2
 8000f4e:	b2db      	uxtb	r3, r3
 8000f50:	2201      	movs	r2, #1
 8000f52:	4013      	ands	r3, r2
 8000f54:	b2da      	uxtb	r2, r3
 8000f56:	4bc3      	ldr	r3, [pc, #780]	; (8001264 <efekt1+0x3d4>)
 8000f58:	701a      	strb	r2, [r3, #0]
		ICON4 = (LED1 >> 3) & 1;
 8000f5a:	4bbb      	ldr	r3, [pc, #748]	; (8001248 <efekt1+0x3b8>)
 8000f5c:	781b      	ldrb	r3, [r3, #0]
 8000f5e:	08db      	lsrs	r3, r3, #3
 8000f60:	b2db      	uxtb	r3, r3
 8000f62:	2201      	movs	r2, #1
 8000f64:	4013      	ands	r3, r2
 8000f66:	b2da      	uxtb	r2, r3
 8000f68:	4bbf      	ldr	r3, [pc, #764]	; (8001268 <efekt1+0x3d8>)
 8000f6a:	701a      	strb	r2, [r3, #0]
		ICON5 = (LED1 >> 4) & 1;
 8000f6c:	4bb6      	ldr	r3, [pc, #728]	; (8001248 <efekt1+0x3b8>)
 8000f6e:	781b      	ldrb	r3, [r3, #0]
 8000f70:	091b      	lsrs	r3, r3, #4
 8000f72:	b2db      	uxtb	r3, r3
 8000f74:	2201      	movs	r2, #1
 8000f76:	4013      	ands	r3, r2
 8000f78:	b2da      	uxtb	r2, r3
 8000f7a:	4bbc      	ldr	r3, [pc, #752]	; (800126c <efekt1+0x3dc>)
 8000f7c:	701a      	strb	r2, [r3, #0]
		ICON6 = (LED1 >> 5) & 1;
 8000f7e:	4bb2      	ldr	r3, [pc, #712]	; (8001248 <efekt1+0x3b8>)
 8000f80:	781b      	ldrb	r3, [r3, #0]
 8000f82:	095b      	lsrs	r3, r3, #5
 8000f84:	b2db      	uxtb	r3, r3
 8000f86:	2201      	movs	r2, #1
 8000f88:	4013      	ands	r3, r2
 8000f8a:	b2da      	uxtb	r2, r3
 8000f8c:	4bb8      	ldr	r3, [pc, #736]	; (8001270 <efekt1+0x3e0>)
 8000f8e:	701a      	strb	r2, [r3, #0]
		ICON7 = (LED1 >> 6) & 1;
 8000f90:	4bad      	ldr	r3, [pc, #692]	; (8001248 <efekt1+0x3b8>)
 8000f92:	781b      	ldrb	r3, [r3, #0]
 8000f94:	099b      	lsrs	r3, r3, #6
 8000f96:	b2db      	uxtb	r3, r3
 8000f98:	2201      	movs	r2, #1
 8000f9a:	4013      	ands	r3, r2
 8000f9c:	b2da      	uxtb	r2, r3
 8000f9e:	4bb5      	ldr	r3, [pc, #724]	; (8001274 <efekt1+0x3e4>)
 8000fa0:	701a      	strb	r2, [r3, #0]
		ICON8 = (LED1 >> 7) & 1;
 8000fa2:	4ba9      	ldr	r3, [pc, #676]	; (8001248 <efekt1+0x3b8>)
 8000fa4:	781b      	ldrb	r3, [r3, #0]
 8000fa6:	09db      	lsrs	r3, r3, #7
 8000fa8:	b2da      	uxtb	r2, r3
 8000faa:	4bb3      	ldr	r3, [pc, #716]	; (8001278 <efekt1+0x3e8>)
 8000fac:	701a      	strb	r2, [r3, #0]

		ICON9 = (LED2 >> 0) & 1;
 8000fae:	4ba7      	ldr	r3, [pc, #668]	; (800124c <efekt1+0x3bc>)
 8000fb0:	781b      	ldrb	r3, [r3, #0]
 8000fb2:	2201      	movs	r2, #1
 8000fb4:	4013      	ands	r3, r2
 8000fb6:	b2da      	uxtb	r2, r3
 8000fb8:	4bb0      	ldr	r3, [pc, #704]	; (800127c <efekt1+0x3ec>)
 8000fba:	701a      	strb	r2, [r3, #0]
		ICON10 = (LED2 >> 1) & 1;
 8000fbc:	4ba3      	ldr	r3, [pc, #652]	; (800124c <efekt1+0x3bc>)
 8000fbe:	781b      	ldrb	r3, [r3, #0]
 8000fc0:	085b      	lsrs	r3, r3, #1
 8000fc2:	b2db      	uxtb	r3, r3
 8000fc4:	2201      	movs	r2, #1
 8000fc6:	4013      	ands	r3, r2
 8000fc8:	b2da      	uxtb	r2, r3
 8000fca:	4bad      	ldr	r3, [pc, #692]	; (8001280 <efekt1+0x3f0>)
 8000fcc:	701a      	strb	r2, [r3, #0]
		ICON11 = (LED2 >> 2) & 1;
 8000fce:	4b9f      	ldr	r3, [pc, #636]	; (800124c <efekt1+0x3bc>)
 8000fd0:	781b      	ldrb	r3, [r3, #0]
 8000fd2:	089b      	lsrs	r3, r3, #2
 8000fd4:	b2db      	uxtb	r3, r3
 8000fd6:	2201      	movs	r2, #1
 8000fd8:	4013      	ands	r3, r2
 8000fda:	b2da      	uxtb	r2, r3
 8000fdc:	4ba9      	ldr	r3, [pc, #676]	; (8001284 <efekt1+0x3f4>)
 8000fde:	701a      	strb	r2, [r3, #0]
		ICON12 = (LED2 >> 3) & 1;
 8000fe0:	4b9a      	ldr	r3, [pc, #616]	; (800124c <efekt1+0x3bc>)
 8000fe2:	781b      	ldrb	r3, [r3, #0]
 8000fe4:	08db      	lsrs	r3, r3, #3
 8000fe6:	b2db      	uxtb	r3, r3
 8000fe8:	2201      	movs	r2, #1
 8000fea:	4013      	ands	r3, r2
 8000fec:	b2da      	uxtb	r2, r3
 8000fee:	4ba6      	ldr	r3, [pc, #664]	; (8001288 <efekt1+0x3f8>)
 8000ff0:	701a      	strb	r2, [r3, #0]
		ICON13 = (LED2 >> 4) & 1;
 8000ff2:	4b96      	ldr	r3, [pc, #600]	; (800124c <efekt1+0x3bc>)
 8000ff4:	781b      	ldrb	r3, [r3, #0]
 8000ff6:	091b      	lsrs	r3, r3, #4
 8000ff8:	b2db      	uxtb	r3, r3
 8000ffa:	2201      	movs	r2, #1
 8000ffc:	4013      	ands	r3, r2
 8000ffe:	b2da      	uxtb	r2, r3
 8001000:	4ba2      	ldr	r3, [pc, #648]	; (800128c <efekt1+0x3fc>)
 8001002:	701a      	strb	r2, [r3, #0]
		ICON14 = (LED2 >> 5) & 1;
 8001004:	4b91      	ldr	r3, [pc, #580]	; (800124c <efekt1+0x3bc>)
 8001006:	781b      	ldrb	r3, [r3, #0]
 8001008:	095b      	lsrs	r3, r3, #5
 800100a:	b2db      	uxtb	r3, r3
 800100c:	2201      	movs	r2, #1
 800100e:	4013      	ands	r3, r2
 8001010:	b2da      	uxtb	r2, r3
 8001012:	4b9f      	ldr	r3, [pc, #636]	; (8001290 <efekt1+0x400>)
 8001014:	701a      	strb	r2, [r3, #0]
		ICON15 = (LED2 >> 6) & 1;
 8001016:	4b8d      	ldr	r3, [pc, #564]	; (800124c <efekt1+0x3bc>)
 8001018:	781b      	ldrb	r3, [r3, #0]
 800101a:	099b      	lsrs	r3, r3, #6
 800101c:	b2db      	uxtb	r3, r3
 800101e:	2201      	movs	r2, #1
 8001020:	4013      	ands	r3, r2
 8001022:	b2da      	uxtb	r2, r3
 8001024:	4b9b      	ldr	r3, [pc, #620]	; (8001294 <efekt1+0x404>)
 8001026:	701a      	strb	r2, [r3, #0]
		ICON16 = (LED2 >> 7) & 1;
 8001028:	4b88      	ldr	r3, [pc, #544]	; (800124c <efekt1+0x3bc>)
 800102a:	781b      	ldrb	r3, [r3, #0]
 800102c:	09db      	lsrs	r3, r3, #7
 800102e:	b2da      	uxtb	r2, r3
 8001030:	4b99      	ldr	r3, [pc, #612]	; (8001298 <efekt1+0x408>)
 8001032:	701a      	strb	r2, [r3, #0]
		//BLUE = {0,0,255};
		//YELLOW = {255,255,0};
		//ORANGE = {255,128,0};
		//WHITE = {255,255,255};
		//LIGHT_YELLOW = {175,175,50};
		if(ICON1==1)
 8001034:	4b89      	ldr	r3, [pc, #548]	; (800125c <efekt1+0x3cc>)
 8001036:	781b      	ldrb	r3, [r3, #0]
 8001038:	2b01      	cmp	r3, #1
 800103a:	d106      	bne.n	800104a <efekt1+0x1ba>
		{
			set_pixel(255, 0,255,0); // 1.Mijania
 800103c:	2300      	movs	r3, #0
 800103e:	22ff      	movs	r2, #255	; 0xff
 8001040:	2100      	movs	r1, #0
 8001042:	20ff      	movs	r0, #255	; 0xff
 8001044:	f000 fab6 	bl	80015b4 <set_pixel>
 8001048:	e005      	b.n	8001056 <efekt1+0x1c6>
		}
		else
		set_pixel(255,0,0,0);
 800104a:	2300      	movs	r3, #0
 800104c:	2200      	movs	r2, #0
 800104e:	2100      	movs	r1, #0
 8001050:	20ff      	movs	r0, #255	; 0xff
 8001052:	f000 faaf 	bl	80015b4 <set_pixel>

		if(ICON2==1)
 8001056:	4b82      	ldr	r3, [pc, #520]	; (8001260 <efekt1+0x3d0>)
 8001058:	781b      	ldrb	r3, [r3, #0]
 800105a:	2b01      	cmp	r3, #1
 800105c:	d106      	bne.n	800106c <efekt1+0x1dc>
		{
			set_pixel(255, 0,0,255); // 2.Drogowe
 800105e:	23ff      	movs	r3, #255	; 0xff
 8001060:	2200      	movs	r2, #0
 8001062:	2100      	movs	r1, #0
 8001064:	20ff      	movs	r0, #255	; 0xff
 8001066:	f000 faa5 	bl	80015b4 <set_pixel>
 800106a:	e005      	b.n	8001078 <efekt1+0x1e8>
		}
		else
		set_pixel(255,0,0,0);
 800106c:	2300      	movs	r3, #0
 800106e:	2200      	movs	r2, #0
 8001070:	2100      	movs	r1, #0
 8001072:	20ff      	movs	r0, #255	; 0xff
 8001074:	f000 fa9e 	bl	80015b4 <set_pixel>

		if(ICON3==1)
 8001078:	4b7a      	ldr	r3, [pc, #488]	; (8001264 <efekt1+0x3d4>)
 800107a:	781b      	ldrb	r3, [r3, #0]
 800107c:	2b01      	cmp	r3, #1
 800107e:	d106      	bne.n	800108e <efekt1+0x1fe>
		{
			set_pixel(255, 0,255,0); // 3.Jazda dzienna
 8001080:	2300      	movs	r3, #0
 8001082:	22ff      	movs	r2, #255	; 0xff
 8001084:	2100      	movs	r1, #0
 8001086:	20ff      	movs	r0, #255	; 0xff
 8001088:	f000 fa94 	bl	80015b4 <set_pixel>
 800108c:	e005      	b.n	800109a <efekt1+0x20a>
		}
		else
		set_pixel(255,0,0,0);
 800108e:	2300      	movs	r3, #0
 8001090:	2200      	movs	r2, #0
 8001092:	2100      	movs	r1, #0
 8001094:	20ff      	movs	r0, #255	; 0xff
 8001096:	f000 fa8d 	bl	80015b4 <set_pixel>

		if(ICON4==1)
 800109a:	4b73      	ldr	r3, [pc, #460]	; (8001268 <efekt1+0x3d8>)
 800109c:	781b      	ldrb	r3, [r3, #0]
 800109e:	2b01      	cmp	r3, #1
 80010a0:	d106      	bne.n	80010b0 <efekt1+0x220>
		{
			set_pixel(255, 255,255,255); // 4.Tempomat
 80010a2:	23ff      	movs	r3, #255	; 0xff
 80010a4:	22ff      	movs	r2, #255	; 0xff
 80010a6:	21ff      	movs	r1, #255	; 0xff
 80010a8:	20ff      	movs	r0, #255	; 0xff
 80010aa:	f000 fa83 	bl	80015b4 <set_pixel>
 80010ae:	e005      	b.n	80010bc <efekt1+0x22c>
		}
		else
		set_pixel(255,0,0,0);
 80010b0:	2300      	movs	r3, #0
 80010b2:	2200      	movs	r2, #0
 80010b4:	2100      	movs	r1, #0
 80010b6:	20ff      	movs	r0, #255	; 0xff
 80010b8:	f000 fa7c 	bl	80015b4 <set_pixel>

		if(ICON5==1)
 80010bc:	4b6b      	ldr	r3, [pc, #428]	; (800126c <efekt1+0x3dc>)
 80010be:	781b      	ldrb	r3, [r3, #0]
 80010c0:	2b01      	cmp	r3, #1
 80010c2:	d106      	bne.n	80010d2 <efekt1+0x242>
		{
			set_pixel(255, 255,255,0); // 5.Przeciwmgielne tyl
 80010c4:	2300      	movs	r3, #0
 80010c6:	22ff      	movs	r2, #255	; 0xff
 80010c8:	21ff      	movs	r1, #255	; 0xff
 80010ca:	20ff      	movs	r0, #255	; 0xff
 80010cc:	f000 fa72 	bl	80015b4 <set_pixel>
 80010d0:	e005      	b.n	80010de <efekt1+0x24e>
		}
		else
		set_pixel(255,0,0,0);
 80010d2:	2300      	movs	r3, #0
 80010d4:	2200      	movs	r2, #0
 80010d6:	2100      	movs	r1, #0
 80010d8:	20ff      	movs	r0, #255	; 0xff
 80010da:	f000 fa6b 	bl	80015b4 <set_pixel>

		if(ICON6==1)
 80010de:	4b64      	ldr	r3, [pc, #400]	; (8001270 <efekt1+0x3e0>)
 80010e0:	781b      	ldrb	r3, [r3, #0]
 80010e2:	2b01      	cmp	r3, #1
 80010e4:	d106      	bne.n	80010f4 <efekt1+0x264>
		{
			set_pixel(255, 255,0,0); // 6.Pasy
 80010e6:	2300      	movs	r3, #0
 80010e8:	2200      	movs	r2, #0
 80010ea:	21ff      	movs	r1, #255	; 0xff
 80010ec:	20ff      	movs	r0, #255	; 0xff
 80010ee:	f000 fa61 	bl	80015b4 <set_pixel>
 80010f2:	e005      	b.n	8001100 <efekt1+0x270>
		}
		else
		set_pixel(255,0,0,0);
 80010f4:	2300      	movs	r3, #0
 80010f6:	2200      	movs	r2, #0
 80010f8:	2100      	movs	r1, #0
 80010fa:	20ff      	movs	r0, #255	; 0xff
 80010fc:	f000 fa5a 	bl	80015b4 <set_pixel>

		if(ICON7==1)
 8001100:	4b5c      	ldr	r3, [pc, #368]	; (8001274 <efekt1+0x3e4>)
 8001102:	781b      	ldrb	r3, [r3, #0]
 8001104:	2b01      	cmp	r3, #1
 8001106:	d106      	bne.n	8001116 <efekt1+0x286>
		{
			set_pixel(255, 255,0,0);// 7. Drzwi
 8001108:	2300      	movs	r3, #0
 800110a:	2200      	movs	r2, #0
 800110c:	21ff      	movs	r1, #255	; 0xff
 800110e:	20ff      	movs	r0, #255	; 0xff
 8001110:	f000 fa50 	bl	80015b4 <set_pixel>
 8001114:	e005      	b.n	8001122 <efekt1+0x292>
		}
		else
		set_pixel(255,0,0,0);
 8001116:	2300      	movs	r3, #0
 8001118:	2200      	movs	r2, #0
 800111a:	2100      	movs	r1, #0
 800111c:	20ff      	movs	r0, #255	; 0xff
 800111e:	f000 fa49 	bl	80015b4 <set_pixel>

		if(ICON8==1)
 8001122:	4b55      	ldr	r3, [pc, #340]	; (8001278 <efekt1+0x3e8>)
 8001124:	781b      	ldrb	r3, [r3, #0]
 8001126:	2b01      	cmp	r3, #1
 8001128:	d106      	bne.n	8001138 <efekt1+0x2a8>
		{
			set_pixel(255, 0,255,0 );//8. Kierunkowskaz lewy
 800112a:	2300      	movs	r3, #0
 800112c:	22ff      	movs	r2, #255	; 0xff
 800112e:	2100      	movs	r1, #0
 8001130:	20ff      	movs	r0, #255	; 0xff
 8001132:	f000 fa3f 	bl	80015b4 <set_pixel>
 8001136:	e005      	b.n	8001144 <efekt1+0x2b4>
		}
		else
		set_pixel(255,0,0,0);
 8001138:	2300      	movs	r3, #0
 800113a:	2200      	movs	r2, #0
 800113c:	2100      	movs	r1, #0
 800113e:	20ff      	movs	r0, #255	; 0xff
 8001140:	f000 fa38 	bl	80015b4 <set_pixel>

		if(ICON9==1)
 8001144:	4b4d      	ldr	r3, [pc, #308]	; (800127c <efekt1+0x3ec>)
 8001146:	781b      	ldrb	r3, [r3, #0]
 8001148:	2b01      	cmp	r3, #1
 800114a:	d106      	bne.n	800115a <efekt1+0x2ca>
		{
			set_pixel(255, 0,255,0);//9. Kierunkowskaz prawy
 800114c:	2300      	movs	r3, #0
 800114e:	22ff      	movs	r2, #255	; 0xff
 8001150:	2100      	movs	r1, #0
 8001152:	20ff      	movs	r0, #255	; 0xff
 8001154:	f000 fa2e 	bl	80015b4 <set_pixel>
 8001158:	e005      	b.n	8001166 <efekt1+0x2d6>
		}
		else
		set_pixel(255,0,0,0);
 800115a:	2300      	movs	r3, #0
 800115c:	2200      	movs	r2, #0
 800115e:	2100      	movs	r1, #0
 8001160:	20ff      	movs	r0, #255	; 0xff
 8001162:	f000 fa27 	bl	80015b4 <set_pixel>

		if(ICON10==1)
 8001166:	4b46      	ldr	r3, [pc, #280]	; (8001280 <efekt1+0x3f0>)
 8001168:	781b      	ldrb	r3, [r3, #0]
 800116a:	2b01      	cmp	r3, #1
 800116c:	d106      	bne.n	800117c <efekt1+0x2ec>
		{
			set_pixel(255, 255,0,0 );//10. Hamulec rczny
 800116e:	2300      	movs	r3, #0
 8001170:	2200      	movs	r2, #0
 8001172:	21ff      	movs	r1, #255	; 0xff
 8001174:	20ff      	movs	r0, #255	; 0xff
 8001176:	f000 fa1d 	bl	80015b4 <set_pixel>
 800117a:	e005      	b.n	8001188 <efekt1+0x2f8>
		}
		else
		set_pixel(255,0,0,0);
 800117c:	2300      	movs	r3, #0
 800117e:	2200      	movs	r2, #0
 8001180:	2100      	movs	r1, #0
 8001182:	20ff      	movs	r0, #255	; 0xff
 8001184:	f000 fa16 	bl	80015b4 <set_pixel>

		if(ICON11==1)
 8001188:	4b3e      	ldr	r3, [pc, #248]	; (8001284 <efekt1+0x3f4>)
 800118a:	781b      	ldrb	r3, [r3, #0]
 800118c:	2b01      	cmp	r3, #1
 800118e:	d106      	bne.n	800119e <efekt1+0x30e>
		{
			set_pixel(255, 255,0,0);//11. BPS
 8001190:	2300      	movs	r3, #0
 8001192:	2200      	movs	r2, #0
 8001194:	21ff      	movs	r1, #255	; 0xff
 8001196:	20ff      	movs	r0, #255	; 0xff
 8001198:	f000 fa0c 	bl	80015b4 <set_pixel>
 800119c:	e005      	b.n	80011aa <efekt1+0x31a>
		}
		else
		set_pixel(255,0,0,0);
 800119e:	2300      	movs	r3, #0
 80011a0:	2200      	movs	r2, #0
 80011a2:	2100      	movs	r1, #0
 80011a4:	20ff      	movs	r0, #255	; 0xff
 80011a6:	f000 fa05 	bl	80015b4 <set_pixel>

		if(ICON12==1)
 80011aa:	4b37      	ldr	r3, [pc, #220]	; (8001288 <efekt1+0x3f8>)
 80011ac:	781b      	ldrb	r3, [r3, #0]
 80011ae:	2b01      	cmp	r3, #1
 80011b0:	d106      	bne.n	80011c0 <efekt1+0x330>
		{
			set_pixel(255, 255,0,0);//12. STOP
 80011b2:	2300      	movs	r3, #0
 80011b4:	2200      	movs	r2, #0
 80011b6:	21ff      	movs	r1, #255	; 0xff
 80011b8:	20ff      	movs	r0, #255	; 0xff
 80011ba:	f000 f9fb 	bl	80015b4 <set_pixel>
 80011be:	e005      	b.n	80011cc <efekt1+0x33c>
		}
		else
		set_pixel(255,0,0,0);
 80011c0:	2300      	movs	r3, #0
 80011c2:	2200      	movs	r2, #0
 80011c4:	2100      	movs	r1, #0
 80011c6:	20ff      	movs	r0, #255	; 0xff
 80011c8:	f000 f9f4 	bl	80015b4 <set_pixel>

		if(ICON13==1)
 80011cc:	4b2f      	ldr	r3, [pc, #188]	; (800128c <efekt1+0x3fc>)
 80011ce:	781b      	ldrb	r3, [r3, #0]
 80011d0:	2b01      	cmp	r3, #1
 80011d2:	d106      	bne.n	80011e2 <efekt1+0x352>
		{
			set_pixel(255, 255,128,0 );//13. Kontrolka awarii napdu
 80011d4:	2300      	movs	r3, #0
 80011d6:	2280      	movs	r2, #128	; 0x80
 80011d8:	21ff      	movs	r1, #255	; 0xff
 80011da:	20ff      	movs	r0, #255	; 0xff
 80011dc:	f000 f9ea 	bl	80015b4 <set_pixel>
 80011e0:	e005      	b.n	80011ee <efekt1+0x35e>
		}
		else
		set_pixel(255,0,0,0);
 80011e2:	2300      	movs	r3, #0
 80011e4:	2200      	movs	r2, #0
 80011e6:	2100      	movs	r1, #0
 80011e8:	20ff      	movs	r0, #255	; 0xff
 80011ea:	f000 f9e3 	bl	80015b4 <set_pixel>

		if(ICON14==1)
 80011ee:	4b28      	ldr	r3, [pc, #160]	; (8001290 <efekt1+0x400>)
 80011f0:	781b      	ldrb	r3, [r3, #0]
 80011f2:	2b01      	cmp	r3, #1
 80011f4:	d106      	bne.n	8001204 <efekt1+0x374>
		{
			set_pixel(255, 255,128,0);//14. Kontrolka temparatury
 80011f6:	2300      	movs	r3, #0
 80011f8:	2280      	movs	r2, #128	; 0x80
 80011fa:	21ff      	movs	r1, #255	; 0xff
 80011fc:	20ff      	movs	r0, #255	; 0xff
 80011fe:	f000 f9d9 	bl	80015b4 <set_pixel>
 8001202:	e005      	b.n	8001210 <efekt1+0x380>
		}
		else
		set_pixel(255,0,0,0);
 8001204:	2300      	movs	r3, #0
 8001206:	2200      	movs	r2, #0
 8001208:	2100      	movs	r1, #0
 800120a:	20ff      	movs	r0, #255	; 0xff
 800120c:	f000 f9d2 	bl	80015b4 <set_pixel>

		if(ICON15==1)
 8001210:	4b20      	ldr	r3, [pc, #128]	; (8001294 <efekt1+0x404>)
 8001212:	781b      	ldrb	r3, [r3, #0]
 8001214:	2b01      	cmp	r3, #1
 8001216:	d141      	bne.n	800129c <efekt1+0x40c>
		{
			set_pixel(255, 255,128,0);//15. Uwaga (oglnie)
 8001218:	2300      	movs	r3, #0
 800121a:	2280      	movs	r2, #128	; 0x80
 800121c:	21ff      	movs	r1, #255	; 0xff
 800121e:	20ff      	movs	r0, #255	; 0xff
 8001220:	f000 f9c8 	bl	80015b4 <set_pixel>
 8001224:	e040      	b.n	80012a8 <efekt1+0x418>
 8001226:	46c0      	nop			; (mov r8, r8)
 8001228:	20000028 	.word	0x20000028
 800122c:	2000004c 	.word	0x2000004c
 8001230:	2000002d 	.word	0x2000002d
 8001234:	20000004 	.word	0x20000004
 8001238:	2000002e 	.word	0x2000002e
 800123c:	20000048 	.word	0x20000048
 8001240:	20000047 	.word	0x20000047
 8001244:	20000046 	.word	0x20000046
 8001248:	2000004a 	.word	0x2000004a
 800124c:	2000004b 	.word	0x2000004b
 8001250:	20000044 	.word	0x20000044
 8001254:	437f0000 	.word	0x437f0000
 8001258:	20000024 	.word	0x20000024
 800125c:	20000034 	.word	0x20000034
 8001260:	20000035 	.word	0x20000035
 8001264:	20000036 	.word	0x20000036
 8001268:	20000037 	.word	0x20000037
 800126c:	20000038 	.word	0x20000038
 8001270:	20000039 	.word	0x20000039
 8001274:	2000003a 	.word	0x2000003a
 8001278:	2000003b 	.word	0x2000003b
 800127c:	2000003c 	.word	0x2000003c
 8001280:	2000003d 	.word	0x2000003d
 8001284:	2000003e 	.word	0x2000003e
 8001288:	2000003f 	.word	0x2000003f
 800128c:	20000040 	.word	0x20000040
 8001290:	20000041 	.word	0x20000041
 8001294:	20000042 	.word	0x20000042
 8001298:	20000043 	.word	0x20000043
		}
		else
		set_pixel(255,0,0,0);
 800129c:	2300      	movs	r3, #0
 800129e:	2200      	movs	r2, #0
 80012a0:	2100      	movs	r1, #0
 80012a2:	20ff      	movs	r0, #255	; 0xff
 80012a4:	f000 f986 	bl	80015b4 <set_pixel>

		if(ICON16==1)
 80012a8:	4bae      	ldr	r3, [pc, #696]	; (8001564 <efekt1+0x6d4>)
 80012aa:	781b      	ldrb	r3, [r3, #0]
 80012ac:	2b01      	cmp	r3, #1
 80012ae:	d106      	bne.n	80012be <efekt1+0x42e>
		{
			set_pixel(255, 255,0,0); //16. Kontrolka baterii
 80012b0:	2300      	movs	r3, #0
 80012b2:	2200      	movs	r2, #0
 80012b4:	21ff      	movs	r1, #255	; 0xff
 80012b6:	20ff      	movs	r0, #255	; 0xff
 80012b8:	f000 f97c 	bl	80015b4 <set_pixel>
 80012bc:	e005      	b.n	80012ca <efekt1+0x43a>
		}
		else
		set_pixel(255,0,0,0);
 80012be:	2300      	movs	r3, #0
 80012c0:	2200      	movs	r2, #0
 80012c2:	2100      	movs	r1, #0
 80012c4:	20ff      	movs	r0, #255	; 0xff
 80012c6:	f000 f975 	bl	80015b4 <set_pixel>

		/////////////////////////////////////////////////////////////

		for(i=1; i<=56; i++)
 80012ca:	4ba7      	ldr	r3, [pc, #668]	; (8001568 <efekt1+0x6d8>)
 80012cc:	2201      	movs	r2, #1
 80012ce:	701a      	strb	r2, [r3, #0]
 80012d0:	e02f      	b.n	8001332 <efekt1+0x4a2>
		{
			if(speed>i)
 80012d2:	4ba6      	ldr	r3, [pc, #664]	; (800156c <efekt1+0x6dc>)
 80012d4:	781a      	ldrb	r2, [r3, #0]
 80012d6:	4ba4      	ldr	r3, [pc, #656]	; (8001568 <efekt1+0x6d8>)
 80012d8:	781b      	ldrb	r3, [r3, #0]
 80012da:	429a      	cmp	r2, r3
 80012dc:	d907      	bls.n	80012ee <efekt1+0x45e>
			{
				set_pixel(jasnosc, 0,0,255);
 80012de:	4ba4      	ldr	r3, [pc, #656]	; (8001570 <efekt1+0x6e0>)
 80012e0:	681b      	ldr	r3, [r3, #0]
 80012e2:	b2d8      	uxtb	r0, r3
 80012e4:	23ff      	movs	r3, #255	; 0xff
 80012e6:	2200      	movs	r2, #0
 80012e8:	2100      	movs	r1, #0
 80012ea:	f000 f963 	bl	80015b4 <set_pixel>
			}
			if(speed<i)
 80012ee:	4b9f      	ldr	r3, [pc, #636]	; (800156c <efekt1+0x6dc>)
 80012f0:	781a      	ldrb	r2, [r3, #0]
 80012f2:	4b9d      	ldr	r3, [pc, #628]	; (8001568 <efekt1+0x6d8>)
 80012f4:	781b      	ldrb	r3, [r3, #0]
 80012f6:	429a      	cmp	r2, r3
 80012f8:	d207      	bcs.n	800130a <efekt1+0x47a>
			{
				set_pixel(jasnosc, 0,0,0);
 80012fa:	4b9d      	ldr	r3, [pc, #628]	; (8001570 <efekt1+0x6e0>)
 80012fc:	681b      	ldr	r3, [r3, #0]
 80012fe:	b2d8      	uxtb	r0, r3
 8001300:	2300      	movs	r3, #0
 8001302:	2200      	movs	r2, #0
 8001304:	2100      	movs	r1, #0
 8001306:	f000 f955 	bl	80015b4 <set_pixel>
			}
			if(speed==i)
 800130a:	4b98      	ldr	r3, [pc, #608]	; (800156c <efekt1+0x6dc>)
 800130c:	781a      	ldrb	r2, [r3, #0]
 800130e:	4b96      	ldr	r3, [pc, #600]	; (8001568 <efekt1+0x6d8>)
 8001310:	781b      	ldrb	r3, [r3, #0]
 8001312:	429a      	cmp	r2, r3
 8001314:	d107      	bne.n	8001326 <efekt1+0x496>
			{
				set_pixel(jasnosc, 0,0,255); //pixel wiodcy
 8001316:	4b96      	ldr	r3, [pc, #600]	; (8001570 <efekt1+0x6e0>)
 8001318:	681b      	ldr	r3, [r3, #0]
 800131a:	b2d8      	uxtb	r0, r3
 800131c:	23ff      	movs	r3, #255	; 0xff
 800131e:	2200      	movs	r2, #0
 8001320:	2100      	movs	r1, #0
 8001322:	f000 f947 	bl	80015b4 <set_pixel>
		for(i=1; i<=56; i++)
 8001326:	4b90      	ldr	r3, [pc, #576]	; (8001568 <efekt1+0x6d8>)
 8001328:	781b      	ldrb	r3, [r3, #0]
 800132a:	3301      	adds	r3, #1
 800132c:	b2da      	uxtb	r2, r3
 800132e:	4b8e      	ldr	r3, [pc, #568]	; (8001568 <efekt1+0x6d8>)
 8001330:	701a      	strb	r2, [r3, #0]
 8001332:	4b8d      	ldr	r3, [pc, #564]	; (8001568 <efekt1+0x6d8>)
 8001334:	781b      	ldrb	r3, [r3, #0]
 8001336:	2b38      	cmp	r3, #56	; 0x38
 8001338:	d9cb      	bls.n	80012d2 <efekt1+0x442>
		}




		for(i=1; i<=19; i++)
 800133a:	4b8b      	ldr	r3, [pc, #556]	; (8001568 <efekt1+0x6d8>)
 800133c:	2201      	movs	r2, #1
 800133e:	701a      	strb	r2, [r3, #0]
 8001340:	e02f      	b.n	80013a2 <efekt1+0x512>
		{
			if(battery>i)
 8001342:	4b8c      	ldr	r3, [pc, #560]	; (8001574 <efekt1+0x6e4>)
 8001344:	781a      	ldrb	r2, [r3, #0]
 8001346:	4b88      	ldr	r3, [pc, #544]	; (8001568 <efekt1+0x6d8>)
 8001348:	781b      	ldrb	r3, [r3, #0]
 800134a:	429a      	cmp	r2, r3
 800134c:	d907      	bls.n	800135e <efekt1+0x4ce>
			{
				set_pixel(jasnosc, 0,0,255);
 800134e:	4b88      	ldr	r3, [pc, #544]	; (8001570 <efekt1+0x6e0>)
 8001350:	681b      	ldr	r3, [r3, #0]
 8001352:	b2d8      	uxtb	r0, r3
 8001354:	23ff      	movs	r3, #255	; 0xff
 8001356:	2200      	movs	r2, #0
 8001358:	2100      	movs	r1, #0
 800135a:	f000 f92b 	bl	80015b4 <set_pixel>
			}
			if(battery<i)
 800135e:	4b85      	ldr	r3, [pc, #532]	; (8001574 <efekt1+0x6e4>)
 8001360:	781a      	ldrb	r2, [r3, #0]
 8001362:	4b81      	ldr	r3, [pc, #516]	; (8001568 <efekt1+0x6d8>)
 8001364:	781b      	ldrb	r3, [r3, #0]
 8001366:	429a      	cmp	r2, r3
 8001368:	d207      	bcs.n	800137a <efekt1+0x4ea>
			{
				set_pixel(jasnosc, 0,0,0);
 800136a:	4b81      	ldr	r3, [pc, #516]	; (8001570 <efekt1+0x6e0>)
 800136c:	681b      	ldr	r3, [r3, #0]
 800136e:	b2d8      	uxtb	r0, r3
 8001370:	2300      	movs	r3, #0
 8001372:	2200      	movs	r2, #0
 8001374:	2100      	movs	r1, #0
 8001376:	f000 f91d 	bl	80015b4 <set_pixel>
			}
			if(battery==i)
 800137a:	4b7e      	ldr	r3, [pc, #504]	; (8001574 <efekt1+0x6e4>)
 800137c:	781a      	ldrb	r2, [r3, #0]
 800137e:	4b7a      	ldr	r3, [pc, #488]	; (8001568 <efekt1+0x6d8>)
 8001380:	781b      	ldrb	r3, [r3, #0]
 8001382:	429a      	cmp	r2, r3
 8001384:	d107      	bne.n	8001396 <efekt1+0x506>
			{
				set_pixel(jasnosc, 0,0,255);//pixel wiodcy
 8001386:	4b7a      	ldr	r3, [pc, #488]	; (8001570 <efekt1+0x6e0>)
 8001388:	681b      	ldr	r3, [r3, #0]
 800138a:	b2d8      	uxtb	r0, r3
 800138c:	23ff      	movs	r3, #255	; 0xff
 800138e:	2200      	movs	r2, #0
 8001390:	2100      	movs	r1, #0
 8001392:	f000 f90f 	bl	80015b4 <set_pixel>
		for(i=1; i<=19; i++)
 8001396:	4b74      	ldr	r3, [pc, #464]	; (8001568 <efekt1+0x6d8>)
 8001398:	781b      	ldrb	r3, [r3, #0]
 800139a:	3301      	adds	r3, #1
 800139c:	b2da      	uxtb	r2, r3
 800139e:	4b72      	ldr	r3, [pc, #456]	; (8001568 <efekt1+0x6d8>)
 80013a0:	701a      	strb	r2, [r3, #0]
 80013a2:	4b71      	ldr	r3, [pc, #452]	; (8001568 <efekt1+0x6d8>)
 80013a4:	781b      	ldrb	r3, [r3, #0]
 80013a6:	2b13      	cmp	r3, #19
 80013a8:	d9cb      	bls.n	8001342 <efekt1+0x4b2>





			if(charging == 0)
 80013aa:	4b73      	ldr	r3, [pc, #460]	; (8001578 <efekt1+0x6e8>)
 80013ac:	781b      	ldrb	r3, [r3, #0]
 80013ae:	2b00      	cmp	r3, #0
 80013b0:	d150      	bne.n	8001454 <efekt1+0x5c4>
			{
				set_pixel(jasnosc, 0,0,0);
 80013b2:	4b6f      	ldr	r3, [pc, #444]	; (8001570 <efekt1+0x6e0>)
 80013b4:	681b      	ldr	r3, [r3, #0]
 80013b6:	b2d8      	uxtb	r0, r3
 80013b8:	2300      	movs	r3, #0
 80013ba:	2200      	movs	r2, #0
 80013bc:	2100      	movs	r1, #0
 80013be:	f000 f8f9 	bl	80015b4 <set_pixel>
				set_pixel(jasnosc, 0,0,0);
 80013c2:	4b6b      	ldr	r3, [pc, #428]	; (8001570 <efekt1+0x6e0>)
 80013c4:	681b      	ldr	r3, [r3, #0]
 80013c6:	b2d8      	uxtb	r0, r3
 80013c8:	2300      	movs	r3, #0
 80013ca:	2200      	movs	r2, #0
 80013cc:	2100      	movs	r1, #0
 80013ce:	f000 f8f1 	bl	80015b4 <set_pixel>
				set_pixel(jasnosc, 0,0,0);
 80013d2:	4b67      	ldr	r3, [pc, #412]	; (8001570 <efekt1+0x6e0>)
 80013d4:	681b      	ldr	r3, [r3, #0]
 80013d6:	b2d8      	uxtb	r0, r3
 80013d8:	2300      	movs	r3, #0
 80013da:	2200      	movs	r2, #0
 80013dc:	2100      	movs	r1, #0
 80013de:	f000 f8e9 	bl	80015b4 <set_pixel>

				for(j=1; j<=16; j++)
 80013e2:	4b66      	ldr	r3, [pc, #408]	; (800157c <efekt1+0x6ec>)
 80013e4:	2201      	movs	r2, #1
 80013e6:	701a      	strb	r2, [r3, #0]
 80013e8:	e02f      	b.n	800144a <efekt1+0x5ba>
				{
					if(power>j)
 80013ea:	4b65      	ldr	r3, [pc, #404]	; (8001580 <efekt1+0x6f0>)
 80013ec:	781a      	ldrb	r2, [r3, #0]
 80013ee:	4b63      	ldr	r3, [pc, #396]	; (800157c <efekt1+0x6ec>)
 80013f0:	781b      	ldrb	r3, [r3, #0]
 80013f2:	429a      	cmp	r2, r3
 80013f4:	d907      	bls.n	8001406 <efekt1+0x576>
					{
						set_pixel(jasnosc, 0,0,255);
 80013f6:	4b5e      	ldr	r3, [pc, #376]	; (8001570 <efekt1+0x6e0>)
 80013f8:	681b      	ldr	r3, [r3, #0]
 80013fa:	b2d8      	uxtb	r0, r3
 80013fc:	23ff      	movs	r3, #255	; 0xff
 80013fe:	2200      	movs	r2, #0
 8001400:	2100      	movs	r1, #0
 8001402:	f000 f8d7 	bl	80015b4 <set_pixel>
					}
					if(power<j)
 8001406:	4b5e      	ldr	r3, [pc, #376]	; (8001580 <efekt1+0x6f0>)
 8001408:	781a      	ldrb	r2, [r3, #0]
 800140a:	4b5c      	ldr	r3, [pc, #368]	; (800157c <efekt1+0x6ec>)
 800140c:	781b      	ldrb	r3, [r3, #0]
 800140e:	429a      	cmp	r2, r3
 8001410:	d207      	bcs.n	8001422 <efekt1+0x592>
					{
						set_pixel(jasnosc, 0,0,0);
 8001412:	4b57      	ldr	r3, [pc, #348]	; (8001570 <efekt1+0x6e0>)
 8001414:	681b      	ldr	r3, [r3, #0]
 8001416:	b2d8      	uxtb	r0, r3
 8001418:	2300      	movs	r3, #0
 800141a:	2200      	movs	r2, #0
 800141c:	2100      	movs	r1, #0
 800141e:	f000 f8c9 	bl	80015b4 <set_pixel>
					}
					if(power==j)
 8001422:	4b57      	ldr	r3, [pc, #348]	; (8001580 <efekt1+0x6f0>)
 8001424:	781a      	ldrb	r2, [r3, #0]
 8001426:	4b55      	ldr	r3, [pc, #340]	; (800157c <efekt1+0x6ec>)
 8001428:	781b      	ldrb	r3, [r3, #0]
 800142a:	429a      	cmp	r2, r3
 800142c:	d107      	bne.n	800143e <efekt1+0x5ae>
					{
						set_pixel(jasnosc, 0,0,255);//pixel wiodcy
 800142e:	4b50      	ldr	r3, [pc, #320]	; (8001570 <efekt1+0x6e0>)
 8001430:	681b      	ldr	r3, [r3, #0]
 8001432:	b2d8      	uxtb	r0, r3
 8001434:	23ff      	movs	r3, #255	; 0xff
 8001436:	2200      	movs	r2, #0
 8001438:	2100      	movs	r1, #0
 800143a:	f000 f8bb 	bl	80015b4 <set_pixel>
				for(j=1; j<=16; j++)
 800143e:	4b4f      	ldr	r3, [pc, #316]	; (800157c <efekt1+0x6ec>)
 8001440:	781b      	ldrb	r3, [r3, #0]
 8001442:	3301      	adds	r3, #1
 8001444:	b2da      	uxtb	r2, r3
 8001446:	4b4d      	ldr	r3, [pc, #308]	; (800157c <efekt1+0x6ec>)
 8001448:	701a      	strb	r2, [r3, #0]
 800144a:	4b4c      	ldr	r3, [pc, #304]	; (800157c <efekt1+0x6ec>)
 800144c:	781b      	ldrb	r3, [r3, #0]
 800144e:	2b10      	cmp	r3, #16
 8001450:	d9cb      	bls.n	80013ea <efekt1+0x55a>
 8001452:	e534      	b.n	8000ebe <efekt1+0x2e>
					}
				}
			}
			else
			{
					if(power == 0)
 8001454:	4b4a      	ldr	r3, [pc, #296]	; (8001580 <efekt1+0x6f0>)
 8001456:	781b      	ldrb	r3, [r3, #0]
 8001458:	2b00      	cmp	r3, #0
 800145a:	d117      	bne.n	800148c <efekt1+0x5fc>
					{
						set_pixel(jasnosc, 0,0,0);
 800145c:	4b44      	ldr	r3, [pc, #272]	; (8001570 <efekt1+0x6e0>)
 800145e:	681b      	ldr	r3, [r3, #0]
 8001460:	b2d8      	uxtb	r0, r3
 8001462:	2300      	movs	r3, #0
 8001464:	2200      	movs	r2, #0
 8001466:	2100      	movs	r1, #0
 8001468:	f000 f8a4 	bl	80015b4 <set_pixel>
						set_pixel(jasnosc, 0,0,0);
 800146c:	4b40      	ldr	r3, [pc, #256]	; (8001570 <efekt1+0x6e0>)
 800146e:	681b      	ldr	r3, [r3, #0]
 8001470:	b2d8      	uxtb	r0, r3
 8001472:	2300      	movs	r3, #0
 8001474:	2200      	movs	r2, #0
 8001476:	2100      	movs	r1, #0
 8001478:	f000 f89c 	bl	80015b4 <set_pixel>
						set_pixel(jasnosc, 0,0,0);
 800147c:	4b3c      	ldr	r3, [pc, #240]	; (8001570 <efekt1+0x6e0>)
 800147e:	681b      	ldr	r3, [r3, #0]
 8001480:	b2d8      	uxtb	r0, r3
 8001482:	2300      	movs	r3, #0
 8001484:	2200      	movs	r2, #0
 8001486:	2100      	movs	r1, #0
 8001488:	f000 f894 	bl	80015b4 <set_pixel>

					}

					if(power == 1)
 800148c:	4b3c      	ldr	r3, [pc, #240]	; (8001580 <efekt1+0x6f0>)
 800148e:	781b      	ldrb	r3, [r3, #0]
 8001490:	2b01      	cmp	r3, #1
 8001492:	d117      	bne.n	80014c4 <efekt1+0x634>
					{
						set_pixel(jasnosc, 0,0,0);
 8001494:	4b36      	ldr	r3, [pc, #216]	; (8001570 <efekt1+0x6e0>)
 8001496:	681b      	ldr	r3, [r3, #0]
 8001498:	b2d8      	uxtb	r0, r3
 800149a:	2300      	movs	r3, #0
 800149c:	2200      	movs	r2, #0
 800149e:	2100      	movs	r1, #0
 80014a0:	f000 f888 	bl	80015b4 <set_pixel>
						set_pixel(jasnosc, 0,0,0);
 80014a4:	4b32      	ldr	r3, [pc, #200]	; (8001570 <efekt1+0x6e0>)
 80014a6:	681b      	ldr	r3, [r3, #0]
 80014a8:	b2d8      	uxtb	r0, r3
 80014aa:	2300      	movs	r3, #0
 80014ac:	2200      	movs	r2, #0
 80014ae:	2100      	movs	r1, #0
 80014b0:	f000 f880 	bl	80015b4 <set_pixel>
						set_pixel(jasnosc, 20,255,0);
 80014b4:	4b2e      	ldr	r3, [pc, #184]	; (8001570 <efekt1+0x6e0>)
 80014b6:	681b      	ldr	r3, [r3, #0]
 80014b8:	b2d8      	uxtb	r0, r3
 80014ba:	2300      	movs	r3, #0
 80014bc:	22ff      	movs	r2, #255	; 0xff
 80014be:	2114      	movs	r1, #20
 80014c0:	f000 f878 	bl	80015b4 <set_pixel>

					}

					if(power == 2)
 80014c4:	4b2e      	ldr	r3, [pc, #184]	; (8001580 <efekt1+0x6f0>)
 80014c6:	781b      	ldrb	r3, [r3, #0]
 80014c8:	2b02      	cmp	r3, #2
 80014ca:	d117      	bne.n	80014fc <efekt1+0x66c>
					{
						set_pixel(jasnosc, 0,0,0);
 80014cc:	4b28      	ldr	r3, [pc, #160]	; (8001570 <efekt1+0x6e0>)
 80014ce:	681b      	ldr	r3, [r3, #0]
 80014d0:	b2d8      	uxtb	r0, r3
 80014d2:	2300      	movs	r3, #0
 80014d4:	2200      	movs	r2, #0
 80014d6:	2100      	movs	r1, #0
 80014d8:	f000 f86c 	bl	80015b4 <set_pixel>
						set_pixel(jasnosc, 20,255,0);
 80014dc:	4b24      	ldr	r3, [pc, #144]	; (8001570 <efekt1+0x6e0>)
 80014de:	681b      	ldr	r3, [r3, #0]
 80014e0:	b2d8      	uxtb	r0, r3
 80014e2:	2300      	movs	r3, #0
 80014e4:	22ff      	movs	r2, #255	; 0xff
 80014e6:	2114      	movs	r1, #20
 80014e8:	f000 f864 	bl	80015b4 <set_pixel>
						set_pixel(jasnosc, 20,255,0);
 80014ec:	4b20      	ldr	r3, [pc, #128]	; (8001570 <efekt1+0x6e0>)
 80014ee:	681b      	ldr	r3, [r3, #0]
 80014f0:	b2d8      	uxtb	r0, r3
 80014f2:	2300      	movs	r3, #0
 80014f4:	22ff      	movs	r2, #255	; 0xff
 80014f6:	2114      	movs	r1, #20
 80014f8:	f000 f85c 	bl	80015b4 <set_pixel>

					}

					if(power == 3)
 80014fc:	4b20      	ldr	r3, [pc, #128]	; (8001580 <efekt1+0x6f0>)
 80014fe:	781b      	ldrb	r3, [r3, #0]
 8001500:	2b03      	cmp	r3, #3
 8001502:	d117      	bne.n	8001534 <efekt1+0x6a4>
					{
						set_pixel(jasnosc, 20,255,0);
 8001504:	4b1a      	ldr	r3, [pc, #104]	; (8001570 <efekt1+0x6e0>)
 8001506:	681b      	ldr	r3, [r3, #0]
 8001508:	b2d8      	uxtb	r0, r3
 800150a:	2300      	movs	r3, #0
 800150c:	22ff      	movs	r2, #255	; 0xff
 800150e:	2114      	movs	r1, #20
 8001510:	f000 f850 	bl	80015b4 <set_pixel>
						set_pixel(jasnosc, 20,255,0);
 8001514:	4b16      	ldr	r3, [pc, #88]	; (8001570 <efekt1+0x6e0>)
 8001516:	681b      	ldr	r3, [r3, #0]
 8001518:	b2d8      	uxtb	r0, r3
 800151a:	2300      	movs	r3, #0
 800151c:	22ff      	movs	r2, #255	; 0xff
 800151e:	2114      	movs	r1, #20
 8001520:	f000 f848 	bl	80015b4 <set_pixel>
						set_pixel(jasnosc, 20,255,0);
 8001524:	4b12      	ldr	r3, [pc, #72]	; (8001570 <efekt1+0x6e0>)
 8001526:	681b      	ldr	r3, [r3, #0]
 8001528:	b2d8      	uxtb	r0, r3
 800152a:	2300      	movs	r3, #0
 800152c:	22ff      	movs	r2, #255	; 0xff
 800152e:	2114      	movs	r1, #20
 8001530:	f000 f840 	bl	80015b4 <set_pixel>

					}



					for(i=1; i<=16; i++)
 8001534:	4b0c      	ldr	r3, [pc, #48]	; (8001568 <efekt1+0x6d8>)
 8001536:	2201      	movs	r2, #1
 8001538:	701a      	strb	r2, [r3, #0]
 800153a:	e00d      	b.n	8001558 <efekt1+0x6c8>
					{
						set_pixel(jasnosc, 0,0,0);
 800153c:	4b0c      	ldr	r3, [pc, #48]	; (8001570 <efekt1+0x6e0>)
 800153e:	681b      	ldr	r3, [r3, #0]
 8001540:	b2d8      	uxtb	r0, r3
 8001542:	2300      	movs	r3, #0
 8001544:	2200      	movs	r2, #0
 8001546:	2100      	movs	r1, #0
 8001548:	f000 f834 	bl	80015b4 <set_pixel>
					for(i=1; i<=16; i++)
 800154c:	4b06      	ldr	r3, [pc, #24]	; (8001568 <efekt1+0x6d8>)
 800154e:	781b      	ldrb	r3, [r3, #0]
 8001550:	3301      	adds	r3, #1
 8001552:	b2da      	uxtb	r2, r3
 8001554:	4b04      	ldr	r3, [pc, #16]	; (8001568 <efekt1+0x6d8>)
 8001556:	701a      	strb	r2, [r3, #0]
 8001558:	4b03      	ldr	r3, [pc, #12]	; (8001568 <efekt1+0x6d8>)
 800155a:	781b      	ldrb	r3, [r3, #0]
 800155c:	2b10      	cmp	r3, #16
 800155e:	d9ed      	bls.n	800153c <efekt1+0x6ac>
		reciveFrame();
 8001560:	e4ad      	b.n	8000ebe <efekt1+0x2e>
 8001562:	46c0      	nop			; (mov r8, r8)
 8001564:	20000043 	.word	0x20000043
 8001568:	20000028 	.word	0x20000028
 800156c:	20000044 	.word	0x20000044
 8001570:	20000004 	.word	0x20000004
 8001574:	20000046 	.word	0x20000046
 8001578:	20000048 	.word	0x20000048
 800157c:	20000029 	.word	0x20000029
 8001580:	20000047 	.word	0x20000047

08001584 <spiTx>:




void spiTx(uint8_t data)
{
 8001584:	b580      	push	{r7, lr}
 8001586:	b082      	sub	sp, #8
 8001588:	af00      	add	r7, sp, #0
 800158a:	0002      	movs	r2, r0
 800158c:	1dfb      	adds	r3, r7, #7
 800158e:	701a      	strb	r2, [r3, #0]
	while((SPI1->SR & SPI_SR_TXE)==0);
 8001590:	46c0      	nop			; (mov r8, r8)
 8001592:	4b07      	ldr	r3, [pc, #28]	; (80015b0 <spiTx+0x2c>)
 8001594:	891b      	ldrh	r3, [r3, #8]
 8001596:	b29b      	uxth	r3, r3
 8001598:	001a      	movs	r2, r3
 800159a:	2302      	movs	r3, #2
 800159c:	4013      	ands	r3, r2
 800159e:	d0f8      	beq.n	8001592 <spiTx+0xe>
	SPI1->DR = data;
 80015a0:	4a03      	ldr	r2, [pc, #12]	; (80015b0 <spiTx+0x2c>)
 80015a2:	1dfb      	adds	r3, r7, #7
 80015a4:	781b      	ldrb	r3, [r3, #0]
 80015a6:	7313      	strb	r3, [r2, #12]
}
 80015a8:	46c0      	nop			; (mov r8, r8)
 80015aa:	46bd      	mov	sp, r7
 80015ac:	b002      	add	sp, #8
 80015ae:	bd80      	pop	{r7, pc}
 80015b0:	40013000 	.word	0x40013000

080015b4 <set_pixel>:

void set_pixel(uint8_t brightness, uint8_t R, uint8_t G, uint8_t B )
{
 80015b4:	b5b0      	push	{r4, r5, r7, lr}
 80015b6:	b082      	sub	sp, #8
 80015b8:	af00      	add	r7, sp, #0
 80015ba:	0005      	movs	r5, r0
 80015bc:	000c      	movs	r4, r1
 80015be:	0010      	movs	r0, r2
 80015c0:	0019      	movs	r1, r3
 80015c2:	1dfb      	adds	r3, r7, #7
 80015c4:	1c2a      	adds	r2, r5, #0
 80015c6:	701a      	strb	r2, [r3, #0]
 80015c8:	1dbb      	adds	r3, r7, #6
 80015ca:	1c22      	adds	r2, r4, #0
 80015cc:	701a      	strb	r2, [r3, #0]
 80015ce:	1d7b      	adds	r3, r7, #5
 80015d0:	1c02      	adds	r2, r0, #0
 80015d2:	701a      	strb	r2, [r3, #0]
 80015d4:	1d3b      	adds	r3, r7, #4
 80015d6:	1c0a      	adds	r2, r1, #0
 80015d8:	701a      	strb	r2, [r3, #0]

	spiTx((int) G*jasnosc_wsp);
 80015da:	1d7b      	adds	r3, r7, #5
 80015dc:	781b      	ldrb	r3, [r3, #0]
 80015de:	0018      	movs	r0, r3
 80015e0:	f7ff f9d2 	bl	8000988 <__aeabi_i2f>
 80015e4:	1c02      	adds	r2, r0, #0
 80015e6:	4b1e      	ldr	r3, [pc, #120]	; (8001660 <set_pixel+0xac>)
 80015e8:	681b      	ldr	r3, [r3, #0]
 80015ea:	1c19      	adds	r1, r3, #0
 80015ec:	1c10      	adds	r0, r2, #0
 80015ee:	f7fe feb5 	bl	800035c <__aeabi_fmul>
 80015f2:	1c03      	adds	r3, r0, #0
 80015f4:	1c18      	adds	r0, r3, #0
 80015f6:	f7fe fd87 	bl	8000108 <__aeabi_f2uiz>
 80015fa:	0003      	movs	r3, r0
 80015fc:	b2db      	uxtb	r3, r3
 80015fe:	0018      	movs	r0, r3
 8001600:	f7ff ffc0 	bl	8001584 <spiTx>
	spiTx((int) R*jasnosc_wsp);
 8001604:	1dbb      	adds	r3, r7, #6
 8001606:	781b      	ldrb	r3, [r3, #0]
 8001608:	0018      	movs	r0, r3
 800160a:	f7ff f9bd 	bl	8000988 <__aeabi_i2f>
 800160e:	1c02      	adds	r2, r0, #0
 8001610:	4b13      	ldr	r3, [pc, #76]	; (8001660 <set_pixel+0xac>)
 8001612:	681b      	ldr	r3, [r3, #0]
 8001614:	1c19      	adds	r1, r3, #0
 8001616:	1c10      	adds	r0, r2, #0
 8001618:	f7fe fea0 	bl	800035c <__aeabi_fmul>
 800161c:	1c03      	adds	r3, r0, #0
 800161e:	1c18      	adds	r0, r3, #0
 8001620:	f7fe fd72 	bl	8000108 <__aeabi_f2uiz>
 8001624:	0003      	movs	r3, r0
 8001626:	b2db      	uxtb	r3, r3
 8001628:	0018      	movs	r0, r3
 800162a:	f7ff ffab 	bl	8001584 <spiTx>
	spiTx((int) B*jasnosc_wsp);
 800162e:	1d3b      	adds	r3, r7, #4
 8001630:	781b      	ldrb	r3, [r3, #0]
 8001632:	0018      	movs	r0, r3
 8001634:	f7ff f9a8 	bl	8000988 <__aeabi_i2f>
 8001638:	1c02      	adds	r2, r0, #0
 800163a:	4b09      	ldr	r3, [pc, #36]	; (8001660 <set_pixel+0xac>)
 800163c:	681b      	ldr	r3, [r3, #0]
 800163e:	1c19      	adds	r1, r3, #0
 8001640:	1c10      	adds	r0, r2, #0
 8001642:	f7fe fe8b 	bl	800035c <__aeabi_fmul>
 8001646:	1c03      	adds	r3, r0, #0
 8001648:	1c18      	adds	r0, r3, #0
 800164a:	f7fe fd5d 	bl	8000108 <__aeabi_f2uiz>
 800164e:	0003      	movs	r3, r0
 8001650:	b2db      	uxtb	r3, r3
 8001652:	0018      	movs	r0, r3
 8001654:	f7ff ff96 	bl	8001584 <spiTx>
}
 8001658:	46c0      	nop			; (mov r8, r8)
 800165a:	46bd      	mov	sp, r7
 800165c:	b002      	add	sp, #8
 800165e:	bdb0      	pop	{r4, r5, r7, pc}
 8001660:	20000024 	.word	0x20000024

08001664 <flush_leds>:

void flush_leds()
{
 8001664:	b580      	push	{r7, lr}
 8001666:	af00      	add	r7, sp, #0

	for(i=0; i<110; i++)
 8001668:	4b0e      	ldr	r3, [pc, #56]	; (80016a4 <flush_leds+0x40>)
 800166a:	2200      	movs	r2, #0
 800166c:	701a      	strb	r2, [r3, #0]
 800166e:	e00e      	b.n	800168e <flush_leds+0x2a>
	{
		spiTx(0);
 8001670:	2000      	movs	r0, #0
 8001672:	f7ff ff87 	bl	8001584 <spiTx>
		spiTx(0);
 8001676:	2000      	movs	r0, #0
 8001678:	f7ff ff84 	bl	8001584 <spiTx>
		spiTx(0);
 800167c:	2000      	movs	r0, #0
 800167e:	f7ff ff81 	bl	8001584 <spiTx>
	for(i=0; i<110; i++)
 8001682:	4b08      	ldr	r3, [pc, #32]	; (80016a4 <flush_leds+0x40>)
 8001684:	781b      	ldrb	r3, [r3, #0]
 8001686:	3301      	adds	r3, #1
 8001688:	b2da      	uxtb	r2, r3
 800168a:	4b06      	ldr	r3, [pc, #24]	; (80016a4 <flush_leds+0x40>)
 800168c:	701a      	strb	r2, [r3, #0]
 800168e:	4b05      	ldr	r3, [pc, #20]	; (80016a4 <flush_leds+0x40>)
 8001690:	781b      	ldrb	r3, [r3, #0]
 8001692:	2b6d      	cmp	r3, #109	; 0x6d
 8001694:	d9ec      	bls.n	8001670 <flush_leds+0xc>
	}
	waitms(1);
 8001696:	2001      	movs	r0, #1
 8001698:	f7ff fb14 	bl	8000cc4 <waitms>

}
 800169c:	46c0      	nop			; (mov r8, r8)
 800169e:	46bd      	mov	sp, r7
 80016a0:	bd80      	pop	{r7, pc}
 80016a2:	46c0      	nop			; (mov r8, r8)
 80016a4:	20000028 	.word	0x20000028

080016a8 <initUsart>:

void initUsart(){
 80016a8:	b580      	push	{r7, lr}
 80016aa:	af00      	add	r7, sp, #0
RCC->AHBENR |= RCC_AHBENR_GPIOAEN; //enable clock for PORTA
 80016ac:	4b27      	ldr	r3, [pc, #156]	; (800174c <initUsart+0xa4>)
 80016ae:	695a      	ldr	r2, [r3, #20]
 80016b0:	4b26      	ldr	r3, [pc, #152]	; (800174c <initUsart+0xa4>)
 80016b2:	2180      	movs	r1, #128	; 0x80
 80016b4:	0289      	lsls	r1, r1, #10
 80016b6:	430a      	orrs	r2, r1
 80016b8:	615a      	str	r2, [r3, #20]
RCC->APB2ENR |= RCC_APB2ENR_USART1EN; //enable clock for USART
 80016ba:	4b24      	ldr	r3, [pc, #144]	; (800174c <initUsart+0xa4>)
 80016bc:	699a      	ldr	r2, [r3, #24]
 80016be:	4b23      	ldr	r3, [pc, #140]	; (800174c <initUsart+0xa4>)
 80016c0:	2180      	movs	r1, #128	; 0x80
 80016c2:	01c9      	lsls	r1, r1, #7
 80016c4:	430a      	orrs	r2, r1
 80016c6:	619a      	str	r2, [r3, #24]

GPIOA->AFR[1] |= (1<<8) ; //mapping AF1 to get RX on PA10
 80016c8:	2390      	movs	r3, #144	; 0x90
 80016ca:	05db      	lsls	r3, r3, #23
 80016cc:	6a5a      	ldr	r2, [r3, #36]	; 0x24
 80016ce:	2390      	movs	r3, #144	; 0x90
 80016d0:	05db      	lsls	r3, r3, #23
 80016d2:	2180      	movs	r1, #128	; 0x80
 80016d4:	0049      	lsls	r1, r1, #1
 80016d6:	430a      	orrs	r2, r1
 80016d8:	625a      	str	r2, [r3, #36]	; 0x24
GPIOA->AFR[1] |= (1<<4) ; //mapping AF1 to get TX on PA9
 80016da:	2390      	movs	r3, #144	; 0x90
 80016dc:	05db      	lsls	r3, r3, #23
 80016de:	6a5a      	ldr	r2, [r3, #36]	; 0x24
 80016e0:	2390      	movs	r3, #144	; 0x90
 80016e2:	05db      	lsls	r3, r3, #23
 80016e4:	2110      	movs	r1, #16
 80016e6:	430a      	orrs	r2, r1
 80016e8:	625a      	str	r2, [r3, #36]	; 0x24

GPIOA->MODER |= GPIO_MODER_MODER9_1; //pin alternate (usart) fun. active
 80016ea:	2390      	movs	r3, #144	; 0x90
 80016ec:	05db      	lsls	r3, r3, #23
 80016ee:	681a      	ldr	r2, [r3, #0]
 80016f0:	2390      	movs	r3, #144	; 0x90
 80016f2:	05db      	lsls	r3, r3, #23
 80016f4:	2180      	movs	r1, #128	; 0x80
 80016f6:	0309      	lsls	r1, r1, #12
 80016f8:	430a      	orrs	r2, r1
 80016fa:	601a      	str	r2, [r3, #0]
GPIOA->MODER |= GPIO_MODER_MODER10_1; //pin alternate (usart) fun. active
 80016fc:	2390      	movs	r3, #144	; 0x90
 80016fe:	05db      	lsls	r3, r3, #23
 8001700:	681a      	ldr	r2, [r3, #0]
 8001702:	2390      	movs	r3, #144	; 0x90
 8001704:	05db      	lsls	r3, r3, #23
 8001706:	2180      	movs	r1, #128	; 0x80
 8001708:	0389      	lsls	r1, r1, #14
 800170a:	430a      	orrs	r2, r1
 800170c:	601a      	str	r2, [r3, #0]

USART1->CR1 &= ~USART_CR1_M; // 1 start bit, 8 data
 800170e:	4b10      	ldr	r3, [pc, #64]	; (8001750 <initUsart+0xa8>)
 8001710:	681a      	ldr	r2, [r3, #0]
 8001712:	4b0f      	ldr	r3, [pc, #60]	; (8001750 <initUsart+0xa8>)
 8001714:	490f      	ldr	r1, [pc, #60]	; (8001754 <initUsart+0xac>)
 8001716:	400a      	ands	r2, r1
 8001718:	601a      	str	r2, [r3, #0]
USART1->BRR = (48000000/115200); //baudrate
 800171a:	4b0d      	ldr	r3, [pc, #52]	; (8001750 <initUsart+0xa8>)
 800171c:	22d0      	movs	r2, #208	; 0xd0
 800171e:	0052      	lsls	r2, r2, #1
 8001720:	819a      	strh	r2, [r3, #12]
USART1->CR2 &= ~USART_CR2_STOP_1 & ~USART_CR2_STOP_0 ; // 1 bit stop
 8001722:	4b0b      	ldr	r3, [pc, #44]	; (8001750 <initUsart+0xa8>)
 8001724:	685a      	ldr	r2, [r3, #4]
 8001726:	4b0a      	ldr	r3, [pc, #40]	; (8001750 <initUsart+0xa8>)
 8001728:	490b      	ldr	r1, [pc, #44]	; (8001758 <initUsart+0xb0>)
 800172a:	400a      	ands	r2, r1
 800172c:	605a      	str	r2, [r3, #4]
USART1->CR1 |= USART_CR1_RE | USART_CR1_TE ; // enables TX and RX
 800172e:	4b08      	ldr	r3, [pc, #32]	; (8001750 <initUsart+0xa8>)
 8001730:	681a      	ldr	r2, [r3, #0]
 8001732:	4b07      	ldr	r3, [pc, #28]	; (8001750 <initUsart+0xa8>)
 8001734:	210c      	movs	r1, #12
 8001736:	430a      	orrs	r2, r1
 8001738:	601a      	str	r2, [r3, #0]


USART1->CR1 |= USART_CR1_UE; // enables USART
 800173a:	4b05      	ldr	r3, [pc, #20]	; (8001750 <initUsart+0xa8>)
 800173c:	681a      	ldr	r2, [r3, #0]
 800173e:	4b04      	ldr	r3, [pc, #16]	; (8001750 <initUsart+0xa8>)
 8001740:	2101      	movs	r1, #1
 8001742:	430a      	orrs	r2, r1
 8001744:	601a      	str	r2, [r3, #0]
}
 8001746:	46c0      	nop			; (mov r8, r8)
 8001748:	46bd      	mov	sp, r7
 800174a:	bd80      	pop	{r7, pc}
 800174c:	40021000 	.word	0x40021000
 8001750:	40013800 	.word	0x40013800
 8001754:	ffffefff 	.word	0xffffefff
 8001758:	ffffcfff 	.word	0xffffcfff

0800175c <reciveFrame>:
	data=USART1->RDR & 0xff; //we need only 8 bits
	return data;
}

void reciveFrame()
{
 800175c:	b580      	push	{r7, lr}
 800175e:	af00      	add	r7, sp, #0

	while((!(USART1->ISR & USART_ISR_RXNE)))
 8001760:	e011      	b.n	8001786 <reciveFrame+0x2a>
	{
		timeout++;
 8001762:	4b95      	ldr	r3, [pc, #596]	; (80019b8 <reciveFrame+0x25c>)
 8001764:	681b      	ldr	r3, [r3, #0]
 8001766:	1c5a      	adds	r2, r3, #1
 8001768:	4b93      	ldr	r3, [pc, #588]	; (80019b8 <reciveFrame+0x25c>)
 800176a:	601a      	str	r2, [r3, #0]
		if(timeout >  timeout_val)
 800176c:	4b92      	ldr	r3, [pc, #584]	; (80019b8 <reciveFrame+0x25c>)
 800176e:	681a      	ldr	r2, [r3, #0]
 8001770:	4b92      	ldr	r3, [pc, #584]	; (80019bc <reciveFrame+0x260>)
 8001772:	681b      	ldr	r3, [r3, #0]
 8001774:	429a      	cmp	r2, r3
 8001776:	d906      	bls.n	8001786 <reciveFrame+0x2a>
		{
			timeout=0;
 8001778:	4b8f      	ldr	r3, [pc, #572]	; (80019b8 <reciveFrame+0x25c>)
 800177a:	2200      	movs	r2, #0
 800177c:	601a      	str	r2, [r3, #0]
			tx_buf[0]=0;
 800177e:	4b90      	ldr	r3, [pc, #576]	; (80019c0 <reciveFrame+0x264>)
 8001780:	2200      	movs	r2, #0
 8001782:	701a      	strb	r2, [r3, #0]
			return;
 8001784:	e115      	b.n	80019b2 <reciveFrame+0x256>
	while((!(USART1->ISR & USART_ISR_RXNE)))
 8001786:	4b8f      	ldr	r3, [pc, #572]	; (80019c4 <reciveFrame+0x268>)
 8001788:	69db      	ldr	r3, [r3, #28]
 800178a:	2220      	movs	r2, #32
 800178c:	4013      	ands	r3, r2
 800178e:	d0e8      	beq.n	8001762 <reciveFrame+0x6>
		}
	}
	timeout=0;
 8001790:	4b89      	ldr	r3, [pc, #548]	; (80019b8 <reciveFrame+0x25c>)
 8001792:	2200      	movs	r2, #0
 8001794:	601a      	str	r2, [r3, #0]
	tx_buf[0]=USART1->RDR;
 8001796:	4b8b      	ldr	r3, [pc, #556]	; (80019c4 <reciveFrame+0x268>)
 8001798:	8c9b      	ldrh	r3, [r3, #36]	; 0x24
 800179a:	b29b      	uxth	r3, r3
 800179c:	b2da      	uxtb	r2, r3
 800179e:	4b88      	ldr	r3, [pc, #544]	; (80019c0 <reciveFrame+0x264>)
 80017a0:	701a      	strb	r2, [r3, #0]

	while((!(USART1->ISR & USART_ISR_RXNE)))
 80017a2:	e011      	b.n	80017c8 <reciveFrame+0x6c>
	{
		timeout++;
 80017a4:	4b84      	ldr	r3, [pc, #528]	; (80019b8 <reciveFrame+0x25c>)
 80017a6:	681b      	ldr	r3, [r3, #0]
 80017a8:	1c5a      	adds	r2, r3, #1
 80017aa:	4b83      	ldr	r3, [pc, #524]	; (80019b8 <reciveFrame+0x25c>)
 80017ac:	601a      	str	r2, [r3, #0]
		if(timeout >  timeout_val)
 80017ae:	4b82      	ldr	r3, [pc, #520]	; (80019b8 <reciveFrame+0x25c>)
 80017b0:	681a      	ldr	r2, [r3, #0]
 80017b2:	4b82      	ldr	r3, [pc, #520]	; (80019bc <reciveFrame+0x260>)
 80017b4:	681b      	ldr	r3, [r3, #0]
 80017b6:	429a      	cmp	r2, r3
 80017b8:	d906      	bls.n	80017c8 <reciveFrame+0x6c>
		{
			tx_buf[1]=0;
 80017ba:	4b81      	ldr	r3, [pc, #516]	; (80019c0 <reciveFrame+0x264>)
 80017bc:	2200      	movs	r2, #0
 80017be:	705a      	strb	r2, [r3, #1]
			timeout=0;
 80017c0:	4b7d      	ldr	r3, [pc, #500]	; (80019b8 <reciveFrame+0x25c>)
 80017c2:	2200      	movs	r2, #0
 80017c4:	601a      	str	r2, [r3, #0]
			return;
 80017c6:	e0f4      	b.n	80019b2 <reciveFrame+0x256>
	while((!(USART1->ISR & USART_ISR_RXNE)))
 80017c8:	4b7e      	ldr	r3, [pc, #504]	; (80019c4 <reciveFrame+0x268>)
 80017ca:	69db      	ldr	r3, [r3, #28]
 80017cc:	2220      	movs	r2, #32
 80017ce:	4013      	ands	r3, r2
 80017d0:	d0e8      	beq.n	80017a4 <reciveFrame+0x48>
		}
	}
	timeout=0;
 80017d2:	4b79      	ldr	r3, [pc, #484]	; (80019b8 <reciveFrame+0x25c>)
 80017d4:	2200      	movs	r2, #0
 80017d6:	601a      	str	r2, [r3, #0]
	tx_buf[1]=USART1->RDR;
 80017d8:	4b7a      	ldr	r3, [pc, #488]	; (80019c4 <reciveFrame+0x268>)
 80017da:	8c9b      	ldrh	r3, [r3, #36]	; 0x24
 80017dc:	b29b      	uxth	r3, r3
 80017de:	b2da      	uxtb	r2, r3
 80017e0:	4b77      	ldr	r3, [pc, #476]	; (80019c0 <reciveFrame+0x264>)
 80017e2:	705a      	strb	r2, [r3, #1]

	while((!(USART1->ISR & USART_ISR_RXNE)))
 80017e4:	e011      	b.n	800180a <reciveFrame+0xae>
	{
		timeout++;
 80017e6:	4b74      	ldr	r3, [pc, #464]	; (80019b8 <reciveFrame+0x25c>)
 80017e8:	681b      	ldr	r3, [r3, #0]
 80017ea:	1c5a      	adds	r2, r3, #1
 80017ec:	4b72      	ldr	r3, [pc, #456]	; (80019b8 <reciveFrame+0x25c>)
 80017ee:	601a      	str	r2, [r3, #0]
		if(timeout >  timeout_val)
 80017f0:	4b71      	ldr	r3, [pc, #452]	; (80019b8 <reciveFrame+0x25c>)
 80017f2:	681a      	ldr	r2, [r3, #0]
 80017f4:	4b71      	ldr	r3, [pc, #452]	; (80019bc <reciveFrame+0x260>)
 80017f6:	681b      	ldr	r3, [r3, #0]
 80017f8:	429a      	cmp	r2, r3
 80017fa:	d906      	bls.n	800180a <reciveFrame+0xae>
		{
			tx_buf[2]=0;
 80017fc:	4b70      	ldr	r3, [pc, #448]	; (80019c0 <reciveFrame+0x264>)
 80017fe:	2200      	movs	r2, #0
 8001800:	709a      	strb	r2, [r3, #2]
			timeout=0;
 8001802:	4b6d      	ldr	r3, [pc, #436]	; (80019b8 <reciveFrame+0x25c>)
 8001804:	2200      	movs	r2, #0
 8001806:	601a      	str	r2, [r3, #0]
			return;
 8001808:	e0d3      	b.n	80019b2 <reciveFrame+0x256>
	while((!(USART1->ISR & USART_ISR_RXNE)))
 800180a:	4b6e      	ldr	r3, [pc, #440]	; (80019c4 <reciveFrame+0x268>)
 800180c:	69db      	ldr	r3, [r3, #28]
 800180e:	2220      	movs	r2, #32
 8001810:	4013      	ands	r3, r2
 8001812:	d0e8      	beq.n	80017e6 <reciveFrame+0x8a>
		}
	}
	timeout=0;
 8001814:	4b68      	ldr	r3, [pc, #416]	; (80019b8 <reciveFrame+0x25c>)
 8001816:	2200      	movs	r2, #0
 8001818:	601a      	str	r2, [r3, #0]
	tx_buf[2]=USART1->RDR;
 800181a:	4b6a      	ldr	r3, [pc, #424]	; (80019c4 <reciveFrame+0x268>)
 800181c:	8c9b      	ldrh	r3, [r3, #36]	; 0x24
 800181e:	b29b      	uxth	r3, r3
 8001820:	b2da      	uxtb	r2, r3
 8001822:	4b67      	ldr	r3, [pc, #412]	; (80019c0 <reciveFrame+0x264>)
 8001824:	709a      	strb	r2, [r3, #2]

	while((!(USART1->ISR & USART_ISR_RXNE)))
 8001826:	e011      	b.n	800184c <reciveFrame+0xf0>
	{
		timeout++;
 8001828:	4b63      	ldr	r3, [pc, #396]	; (80019b8 <reciveFrame+0x25c>)
 800182a:	681b      	ldr	r3, [r3, #0]
 800182c:	1c5a      	adds	r2, r3, #1
 800182e:	4b62      	ldr	r3, [pc, #392]	; (80019b8 <reciveFrame+0x25c>)
 8001830:	601a      	str	r2, [r3, #0]
		if(timeout >  timeout_val)
 8001832:	4b61      	ldr	r3, [pc, #388]	; (80019b8 <reciveFrame+0x25c>)
 8001834:	681a      	ldr	r2, [r3, #0]
 8001836:	4b61      	ldr	r3, [pc, #388]	; (80019bc <reciveFrame+0x260>)
 8001838:	681b      	ldr	r3, [r3, #0]
 800183a:	429a      	cmp	r2, r3
 800183c:	d906      	bls.n	800184c <reciveFrame+0xf0>
		{
			tx_buf[3]=0;
 800183e:	4b60      	ldr	r3, [pc, #384]	; (80019c0 <reciveFrame+0x264>)
 8001840:	2200      	movs	r2, #0
 8001842:	70da      	strb	r2, [r3, #3]
			timeout=0;
 8001844:	4b5c      	ldr	r3, [pc, #368]	; (80019b8 <reciveFrame+0x25c>)
 8001846:	2200      	movs	r2, #0
 8001848:	601a      	str	r2, [r3, #0]
			return;
 800184a:	e0b2      	b.n	80019b2 <reciveFrame+0x256>
	while((!(USART1->ISR & USART_ISR_RXNE)))
 800184c:	4b5d      	ldr	r3, [pc, #372]	; (80019c4 <reciveFrame+0x268>)
 800184e:	69db      	ldr	r3, [r3, #28]
 8001850:	2220      	movs	r2, #32
 8001852:	4013      	ands	r3, r2
 8001854:	d0e8      	beq.n	8001828 <reciveFrame+0xcc>
		}
	}
	timeout=0;
 8001856:	4b58      	ldr	r3, [pc, #352]	; (80019b8 <reciveFrame+0x25c>)
 8001858:	2200      	movs	r2, #0
 800185a:	601a      	str	r2, [r3, #0]
	tx_buf[3]=USART1->RDR;
 800185c:	4b59      	ldr	r3, [pc, #356]	; (80019c4 <reciveFrame+0x268>)
 800185e:	8c9b      	ldrh	r3, [r3, #36]	; 0x24
 8001860:	b29b      	uxth	r3, r3
 8001862:	b2da      	uxtb	r2, r3
 8001864:	4b56      	ldr	r3, [pc, #344]	; (80019c0 <reciveFrame+0x264>)
 8001866:	70da      	strb	r2, [r3, #3]

	while((!(USART1->ISR & USART_ISR_RXNE)))
 8001868:	e011      	b.n	800188e <reciveFrame+0x132>
	{
		timeout++;
 800186a:	4b53      	ldr	r3, [pc, #332]	; (80019b8 <reciveFrame+0x25c>)
 800186c:	681b      	ldr	r3, [r3, #0]
 800186e:	1c5a      	adds	r2, r3, #1
 8001870:	4b51      	ldr	r3, [pc, #324]	; (80019b8 <reciveFrame+0x25c>)
 8001872:	601a      	str	r2, [r3, #0]
		if(timeout >  timeout_val)
 8001874:	4b50      	ldr	r3, [pc, #320]	; (80019b8 <reciveFrame+0x25c>)
 8001876:	681a      	ldr	r2, [r3, #0]
 8001878:	4b50      	ldr	r3, [pc, #320]	; (80019bc <reciveFrame+0x260>)
 800187a:	681b      	ldr	r3, [r3, #0]
 800187c:	429a      	cmp	r2, r3
 800187e:	d906      	bls.n	800188e <reciveFrame+0x132>
		{
			tx_buf[4]=0;
 8001880:	4b4f      	ldr	r3, [pc, #316]	; (80019c0 <reciveFrame+0x264>)
 8001882:	2200      	movs	r2, #0
 8001884:	711a      	strb	r2, [r3, #4]
			timeout=0;
 8001886:	4b4c      	ldr	r3, [pc, #304]	; (80019b8 <reciveFrame+0x25c>)
 8001888:	2200      	movs	r2, #0
 800188a:	601a      	str	r2, [r3, #0]
			return;
 800188c:	e091      	b.n	80019b2 <reciveFrame+0x256>
	while((!(USART1->ISR & USART_ISR_RXNE)))
 800188e:	4b4d      	ldr	r3, [pc, #308]	; (80019c4 <reciveFrame+0x268>)
 8001890:	69db      	ldr	r3, [r3, #28]
 8001892:	2220      	movs	r2, #32
 8001894:	4013      	ands	r3, r2
 8001896:	d0e8      	beq.n	800186a <reciveFrame+0x10e>
		}
	}
	timeout=0;
 8001898:	4b47      	ldr	r3, [pc, #284]	; (80019b8 <reciveFrame+0x25c>)
 800189a:	2200      	movs	r2, #0
 800189c:	601a      	str	r2, [r3, #0]
	tx_buf[4]=USART1->RDR;
 800189e:	4b49      	ldr	r3, [pc, #292]	; (80019c4 <reciveFrame+0x268>)
 80018a0:	8c9b      	ldrh	r3, [r3, #36]	; 0x24
 80018a2:	b29b      	uxth	r3, r3
 80018a4:	b2da      	uxtb	r2, r3
 80018a6:	4b46      	ldr	r3, [pc, #280]	; (80019c0 <reciveFrame+0x264>)
 80018a8:	711a      	strb	r2, [r3, #4]

	while((!(USART1->ISR & USART_ISR_RXNE)))
 80018aa:	e011      	b.n	80018d0 <reciveFrame+0x174>
	{
		timeout++;
 80018ac:	4b42      	ldr	r3, [pc, #264]	; (80019b8 <reciveFrame+0x25c>)
 80018ae:	681b      	ldr	r3, [r3, #0]
 80018b0:	1c5a      	adds	r2, r3, #1
 80018b2:	4b41      	ldr	r3, [pc, #260]	; (80019b8 <reciveFrame+0x25c>)
 80018b4:	601a      	str	r2, [r3, #0]
		if(timeout >  timeout_val)
 80018b6:	4b40      	ldr	r3, [pc, #256]	; (80019b8 <reciveFrame+0x25c>)
 80018b8:	681a      	ldr	r2, [r3, #0]
 80018ba:	4b40      	ldr	r3, [pc, #256]	; (80019bc <reciveFrame+0x260>)
 80018bc:	681b      	ldr	r3, [r3, #0]
 80018be:	429a      	cmp	r2, r3
 80018c0:	d906      	bls.n	80018d0 <reciveFrame+0x174>
		{
			tx_buf[5]=0;
 80018c2:	4b3f      	ldr	r3, [pc, #252]	; (80019c0 <reciveFrame+0x264>)
 80018c4:	2200      	movs	r2, #0
 80018c6:	715a      	strb	r2, [r3, #5]
			timeout=0;
 80018c8:	4b3b      	ldr	r3, [pc, #236]	; (80019b8 <reciveFrame+0x25c>)
 80018ca:	2200      	movs	r2, #0
 80018cc:	601a      	str	r2, [r3, #0]
			return;
 80018ce:	e070      	b.n	80019b2 <reciveFrame+0x256>
	while((!(USART1->ISR & USART_ISR_RXNE)))
 80018d0:	4b3c      	ldr	r3, [pc, #240]	; (80019c4 <reciveFrame+0x268>)
 80018d2:	69db      	ldr	r3, [r3, #28]
 80018d4:	2220      	movs	r2, #32
 80018d6:	4013      	ands	r3, r2
 80018d8:	d0e8      	beq.n	80018ac <reciveFrame+0x150>
		}
	}
	timeout=0;
 80018da:	4b37      	ldr	r3, [pc, #220]	; (80019b8 <reciveFrame+0x25c>)
 80018dc:	2200      	movs	r2, #0
 80018de:	601a      	str	r2, [r3, #0]
	tx_buf[5]=USART1->RDR;
 80018e0:	4b38      	ldr	r3, [pc, #224]	; (80019c4 <reciveFrame+0x268>)
 80018e2:	8c9b      	ldrh	r3, [r3, #36]	; 0x24
 80018e4:	b29b      	uxth	r3, r3
 80018e6:	b2da      	uxtb	r2, r3
 80018e8:	4b35      	ldr	r3, [pc, #212]	; (80019c0 <reciveFrame+0x264>)
 80018ea:	715a      	strb	r2, [r3, #5]

	while((!(USART1->ISR & USART_ISR_RXNE)))
 80018ec:	e011      	b.n	8001912 <reciveFrame+0x1b6>
	{
		timeout++;
 80018ee:	4b32      	ldr	r3, [pc, #200]	; (80019b8 <reciveFrame+0x25c>)
 80018f0:	681b      	ldr	r3, [r3, #0]
 80018f2:	1c5a      	adds	r2, r3, #1
 80018f4:	4b30      	ldr	r3, [pc, #192]	; (80019b8 <reciveFrame+0x25c>)
 80018f6:	601a      	str	r2, [r3, #0]
		if(timeout >  timeout_val)
 80018f8:	4b2f      	ldr	r3, [pc, #188]	; (80019b8 <reciveFrame+0x25c>)
 80018fa:	681a      	ldr	r2, [r3, #0]
 80018fc:	4b2f      	ldr	r3, [pc, #188]	; (80019bc <reciveFrame+0x260>)
 80018fe:	681b      	ldr	r3, [r3, #0]
 8001900:	429a      	cmp	r2, r3
 8001902:	d906      	bls.n	8001912 <reciveFrame+0x1b6>
		{
			tx_buf[6]=0;
 8001904:	4b2e      	ldr	r3, [pc, #184]	; (80019c0 <reciveFrame+0x264>)
 8001906:	2200      	movs	r2, #0
 8001908:	719a      	strb	r2, [r3, #6]
			timeout=0;
 800190a:	4b2b      	ldr	r3, [pc, #172]	; (80019b8 <reciveFrame+0x25c>)
 800190c:	2200      	movs	r2, #0
 800190e:	601a      	str	r2, [r3, #0]
			return;
 8001910:	e04f      	b.n	80019b2 <reciveFrame+0x256>
	while((!(USART1->ISR & USART_ISR_RXNE)))
 8001912:	4b2c      	ldr	r3, [pc, #176]	; (80019c4 <reciveFrame+0x268>)
 8001914:	69db      	ldr	r3, [r3, #28]
 8001916:	2220      	movs	r2, #32
 8001918:	4013      	ands	r3, r2
 800191a:	d0e8      	beq.n	80018ee <reciveFrame+0x192>
		}
	}
	timeout=0;
 800191c:	4b26      	ldr	r3, [pc, #152]	; (80019b8 <reciveFrame+0x25c>)
 800191e:	2200      	movs	r2, #0
 8001920:	601a      	str	r2, [r3, #0]
	tx_buf[6]=USART1->RDR;
 8001922:	4b28      	ldr	r3, [pc, #160]	; (80019c4 <reciveFrame+0x268>)
 8001924:	8c9b      	ldrh	r3, [r3, #36]	; 0x24
 8001926:	b29b      	uxth	r3, r3
 8001928:	b2da      	uxtb	r2, r3
 800192a:	4b25      	ldr	r3, [pc, #148]	; (80019c0 <reciveFrame+0x264>)
 800192c:	719a      	strb	r2, [r3, #6]

	while((!(USART1->ISR & USART_ISR_RXNE)))
 800192e:	e011      	b.n	8001954 <reciveFrame+0x1f8>
	{
		timeout++;
 8001930:	4b21      	ldr	r3, [pc, #132]	; (80019b8 <reciveFrame+0x25c>)
 8001932:	681b      	ldr	r3, [r3, #0]
 8001934:	1c5a      	adds	r2, r3, #1
 8001936:	4b20      	ldr	r3, [pc, #128]	; (80019b8 <reciveFrame+0x25c>)
 8001938:	601a      	str	r2, [r3, #0]
		if(timeout >  timeout_val)
 800193a:	4b1f      	ldr	r3, [pc, #124]	; (80019b8 <reciveFrame+0x25c>)
 800193c:	681a      	ldr	r2, [r3, #0]
 800193e:	4b1f      	ldr	r3, [pc, #124]	; (80019bc <reciveFrame+0x260>)
 8001940:	681b      	ldr	r3, [r3, #0]
 8001942:	429a      	cmp	r2, r3
 8001944:	d906      	bls.n	8001954 <reciveFrame+0x1f8>
		{
			tx_buf[7]=0;
 8001946:	4b1e      	ldr	r3, [pc, #120]	; (80019c0 <reciveFrame+0x264>)
 8001948:	2200      	movs	r2, #0
 800194a:	71da      	strb	r2, [r3, #7]
			timeout=0;
 800194c:	4b1a      	ldr	r3, [pc, #104]	; (80019b8 <reciveFrame+0x25c>)
 800194e:	2200      	movs	r2, #0
 8001950:	601a      	str	r2, [r3, #0]
			return;
 8001952:	e02e      	b.n	80019b2 <reciveFrame+0x256>
	while((!(USART1->ISR & USART_ISR_RXNE)))
 8001954:	4b1b      	ldr	r3, [pc, #108]	; (80019c4 <reciveFrame+0x268>)
 8001956:	69db      	ldr	r3, [r3, #28]
 8001958:	2220      	movs	r2, #32
 800195a:	4013      	ands	r3, r2
 800195c:	d0e8      	beq.n	8001930 <reciveFrame+0x1d4>
		}
	}
	timeout=0;
 800195e:	4b16      	ldr	r3, [pc, #88]	; (80019b8 <reciveFrame+0x25c>)
 8001960:	2200      	movs	r2, #0
 8001962:	601a      	str	r2, [r3, #0]
	tx_buf[7]=USART1->RDR;
 8001964:	4b17      	ldr	r3, [pc, #92]	; (80019c4 <reciveFrame+0x268>)
 8001966:	8c9b      	ldrh	r3, [r3, #36]	; 0x24
 8001968:	b29b      	uxth	r3, r3
 800196a:	b2da      	uxtb	r2, r3
 800196c:	4b14      	ldr	r3, [pc, #80]	; (80019c0 <reciveFrame+0x264>)
 800196e:	71da      	strb	r2, [r3, #7]

	while((!(USART1->ISR & USART_ISR_RXNE)))
 8001970:	e011      	b.n	8001996 <reciveFrame+0x23a>
	{
		timeout++;
 8001972:	4b11      	ldr	r3, [pc, #68]	; (80019b8 <reciveFrame+0x25c>)
 8001974:	681b      	ldr	r3, [r3, #0]
 8001976:	1c5a      	adds	r2, r3, #1
 8001978:	4b0f      	ldr	r3, [pc, #60]	; (80019b8 <reciveFrame+0x25c>)
 800197a:	601a      	str	r2, [r3, #0]
		if(timeout >  timeout_val)
 800197c:	4b0e      	ldr	r3, [pc, #56]	; (80019b8 <reciveFrame+0x25c>)
 800197e:	681a      	ldr	r2, [r3, #0]
 8001980:	4b0e      	ldr	r3, [pc, #56]	; (80019bc <reciveFrame+0x260>)
 8001982:	681b      	ldr	r3, [r3, #0]
 8001984:	429a      	cmp	r2, r3
 8001986:	d906      	bls.n	8001996 <reciveFrame+0x23a>
		{
			tx_buf[8]=0;
 8001988:	4b0d      	ldr	r3, [pc, #52]	; (80019c0 <reciveFrame+0x264>)
 800198a:	2200      	movs	r2, #0
 800198c:	721a      	strb	r2, [r3, #8]
			timeout=0;
 800198e:	4b0a      	ldr	r3, [pc, #40]	; (80019b8 <reciveFrame+0x25c>)
 8001990:	2200      	movs	r2, #0
 8001992:	601a      	str	r2, [r3, #0]
			return;
 8001994:	e00d      	b.n	80019b2 <reciveFrame+0x256>
	while((!(USART1->ISR & USART_ISR_RXNE)))
 8001996:	4b0b      	ldr	r3, [pc, #44]	; (80019c4 <reciveFrame+0x268>)
 8001998:	69db      	ldr	r3, [r3, #28]
 800199a:	2220      	movs	r2, #32
 800199c:	4013      	ands	r3, r2
 800199e:	d0e8      	beq.n	8001972 <reciveFrame+0x216>
		}
	}
	timeout=0;
 80019a0:	4b05      	ldr	r3, [pc, #20]	; (80019b8 <reciveFrame+0x25c>)
 80019a2:	2200      	movs	r2, #0
 80019a4:	601a      	str	r2, [r3, #0]
	tx_buf[8]=USART1->RDR;
 80019a6:	4b07      	ldr	r3, [pc, #28]	; (80019c4 <reciveFrame+0x268>)
 80019a8:	8c9b      	ldrh	r3, [r3, #36]	; 0x24
 80019aa:	b29b      	uxth	r3, r3
 80019ac:	b2da      	uxtb	r2, r3
 80019ae:	4b04      	ldr	r3, [pc, #16]	; (80019c0 <reciveFrame+0x264>)
 80019b0:	721a      	strb	r2, [r3, #8]
}
 80019b2:	46bd      	mov	sp, r7
 80019b4:	bd80      	pop	{r7, pc}
 80019b6:	46c0      	nop			; (mov r8, r8)
 80019b8:	20000030 	.word	0x20000030
 80019bc:	20000000 	.word	0x20000000
 80019c0:	2000004c 	.word	0x2000004c
 80019c4:	40013800 	.word	0x40013800

080019c8 <Reset_Handler>:

  .section .text.Reset_Handler
  .weak Reset_Handler
  .type Reset_Handler, %function
Reset_Handler:
  ldr   r0, =_estack
 80019c8:	480d      	ldr	r0, [pc, #52]	; (8001a00 <LoopForever+0x2>)
  mov   sp, r0          /* set stack pointer */
 80019ca:	4685      	mov	sp, r0

/* Copy the data segment initializers from flash to SRAM */
  ldr r0, =_sdata
 80019cc:	480d      	ldr	r0, [pc, #52]	; (8001a04 <LoopForever+0x6>)
  ldr r1, =_edata
 80019ce:	490e      	ldr	r1, [pc, #56]	; (8001a08 <LoopForever+0xa>)
  ldr r2, =_sidata
 80019d0:	4a0e      	ldr	r2, [pc, #56]	; (8001a0c <LoopForever+0xe>)
  movs r3, #0
 80019d2:	2300      	movs	r3, #0
  b LoopCopyDataInit
 80019d4:	e002      	b.n	80019dc <LoopCopyDataInit>

080019d6 <CopyDataInit>:

CopyDataInit:
  ldr r4, [r2, r3]
 80019d6:	58d4      	ldr	r4, [r2, r3]
  str r4, [r0, r3]
 80019d8:	50c4      	str	r4, [r0, r3]
  adds r3, r3, #4
 80019da:	3304      	adds	r3, #4

080019dc <LoopCopyDataInit>:

LoopCopyDataInit:
  adds r4, r0, r3
 80019dc:	18c4      	adds	r4, r0, r3
  cmp r4, r1
 80019de:	428c      	cmp	r4, r1
  bcc CopyDataInit
 80019e0:	d3f9      	bcc.n	80019d6 <CopyDataInit>
  
/* Zero fill the bss segment. */
  ldr r2, =_sbss
 80019e2:	4a0b      	ldr	r2, [pc, #44]	; (8001a10 <LoopForever+0x12>)
  ldr r4, =_ebss
 80019e4:	4c0b      	ldr	r4, [pc, #44]	; (8001a14 <LoopForever+0x16>)
  movs r3, #0
 80019e6:	2300      	movs	r3, #0
  b LoopFillZerobss
 80019e8:	e001      	b.n	80019ee <LoopFillZerobss>

080019ea <FillZerobss>:

FillZerobss:
  str  r3, [r2]
 80019ea:	6013      	str	r3, [r2, #0]
  adds r2, r2, #4
 80019ec:	3204      	adds	r2, #4

080019ee <LoopFillZerobss>:

LoopFillZerobss:
  cmp r2, r4
 80019ee:	42a2      	cmp	r2, r4
  bcc FillZerobss
 80019f0:	d3fb      	bcc.n	80019ea <FillZerobss>

/* Call the clock system intitialization function.*/
  bl  SystemInit
 80019f2:	e000      	b.n	80019f6 <LoopFillZerobss+0x8>
 80019f4:	bf00      	nop
/* Call static constructors */
  bl __libc_init_array
 80019f6:	f000 f811 	bl	8001a1c <__libc_init_array>
/* Call the application's entry point.*/
  bl main
 80019fa:	f7ff f977 	bl	8000cec <main>

080019fe <LoopForever>:

LoopForever:
    b LoopForever
 80019fe:	e7fe      	b.n	80019fe <LoopForever>
  ldr   r0, =_estack
 8001a00:	20001000 	.word	0x20001000
  ldr r0, =_sdata
 8001a04:	20000000 	.word	0x20000000
  ldr r1, =_edata
 8001a08:	20000008 	.word	0x20000008
  ldr r2, =_sidata
 8001a0c:	08001b44 	.word	0x08001b44
  ldr r2, =_sbss
 8001a10:	20000008 	.word	0x20000008
  ldr r4, =_ebss
 8001a14:	20000058 	.word	0x20000058

08001a18 <ADC_IRQHandler>:
 * @retval : None
*/
    .section .text.Default_Handler,"ax",%progbits
Default_Handler:
Infinite_Loop:
  b Infinite_Loop
 8001a18:	e7fe      	b.n	8001a18 <ADC_IRQHandler>
	...

08001a1c <__libc_init_array>:
 8001a1c:	b570      	push	{r4, r5, r6, lr}
 8001a1e:	2600      	movs	r6, #0
 8001a20:	4d0c      	ldr	r5, [pc, #48]	; (8001a54 <__libc_init_array+0x38>)
 8001a22:	4c0d      	ldr	r4, [pc, #52]	; (8001a58 <__libc_init_array+0x3c>)
 8001a24:	1b64      	subs	r4, r4, r5
 8001a26:	10a4      	asrs	r4, r4, #2
 8001a28:	42a6      	cmp	r6, r4
 8001a2a:	d109      	bne.n	8001a40 <__libc_init_array+0x24>
 8001a2c:	2600      	movs	r6, #0
 8001a2e:	f000 f819 	bl	8001a64 <_init>
 8001a32:	4d0a      	ldr	r5, [pc, #40]	; (8001a5c <__libc_init_array+0x40>)
 8001a34:	4c0a      	ldr	r4, [pc, #40]	; (8001a60 <__libc_init_array+0x44>)
 8001a36:	1b64      	subs	r4, r4, r5
 8001a38:	10a4      	asrs	r4, r4, #2
 8001a3a:	42a6      	cmp	r6, r4
 8001a3c:	d105      	bne.n	8001a4a <__libc_init_array+0x2e>
 8001a3e:	bd70      	pop	{r4, r5, r6, pc}
 8001a40:	00b3      	lsls	r3, r6, #2
 8001a42:	58eb      	ldr	r3, [r5, r3]
 8001a44:	4798      	blx	r3
 8001a46:	3601      	adds	r6, #1
 8001a48:	e7ee      	b.n	8001a28 <__libc_init_array+0xc>
 8001a4a:	00b3      	lsls	r3, r6, #2
 8001a4c:	58eb      	ldr	r3, [r5, r3]
 8001a4e:	4798      	blx	r3
 8001a50:	3601      	adds	r6, #1
 8001a52:	e7f2      	b.n	8001a3a <__libc_init_array+0x1e>
 8001a54:	08001b3c 	.word	0x08001b3c
 8001a58:	08001b3c 	.word	0x08001b3c
 8001a5c:	08001b3c 	.word	0x08001b3c
 8001a60:	08001b40 	.word	0x08001b40

08001a64 <_init>:
 8001a64:	b5f8      	push	{r3, r4, r5, r6, r7, lr}
 8001a66:	46c0      	nop			; (mov r8, r8)
 8001a68:	bcf8      	pop	{r3, r4, r5, r6, r7}
 8001a6a:	bc08      	pop	{r3}
 8001a6c:	469e      	mov	lr, r3
 8001a6e:	4770      	bx	lr

08001a70 <_fini>:
 8001a70:	b5f8      	push	{r3, r4, r5, r6, r7, lr}
 8001a72:	46c0      	nop			; (mov r8, r8)
 8001a74:	bcf8      	pop	{r3, r4, r5, r6, r7}
 8001a76:	bc08      	pop	{r3}
 8001a78:	469e      	mov	lr, r3
 8001a7a:	4770      	bx	lr
